(lp0
VGay couples should be able to take advantage of the fiscal and legal benefits of marriage
p1
aVGay marriage undermines the institution of marriage, leading to an increase in out of wedlock births and divorce rates
p2
aVIt is discriminatory to refuse gay couples the right to marry
p3
aVMajor world religions are against gay marriages
p4
aVMarriage is about more than procreation, therefore gay couples should not be denied the right to marry due to their biology.
p5
aVMarriage should be between a man and a woman
p6
aVGay couples can declare their union without resort to marriage
p7
aVGay couples should be able to take advantage of the fiscal and legal benefits of marriage
p8
aVGay marriage undermines the institution of marriage, leading to an increase in out of wedlock births and divorce rates
p9
aVIt is discriminatory to refuse gay couples the right to marry
p10
aVMajor world religions are against gay marriages
p11
aVMarriage is about more than procreation, therefore gay couples should not be denied the right to marry due to their biology.
p12
aVMarriage should be between a man and a woman
p13
aVGay couples can declare their union without resort to marriage
p14
aVGay couples should be able to take advantage of the fiscal and legal benefits of marriage
p15
aVGay marriage undermines the institution of marriage, leading to an increase in out of wedlock births and divorce rates
p16
aVIt is discriminatory to refuse gay couples the right to marry
p17
aVMajor world religions are against gay marriages
p18
aVMarriage is about more than procreation, therefore gay couples should not be denied the right to marry due to their biology.
p19
aVMarriage should be between a man and a woman
p20
aVGay couples can declare their union without resort to marriage
p21
aVGay couples should be able to take advantage of the fiscal and legal benefits of marriage
p22
aVGay marriage undermines the institution of marriage, leading to an increase in out of wedlock births and divorce rates
p23
aVMajor world religions are against gay marriages
p24
aVMarriage is about more than procreation, therefore gay couples should not be denied the right to marry due to their biology.
p25
aVMarriage should be between a man and a woman
p26
aVGay couples can declare their union without resort to marriage
p27
aVGay couples should be able to take advantage of the fiscal and legal benefits of marriage
p28
aVGay marriage undermines the institution of marriage, leading to an increase in out of wedlock births and divorce rates
p29
aVIt is discriminatory to refuse gay couples the right to marry
p30
aVMajor world religions are against gay marriages
p31
aVMarriage is about more than procreation, therefore gay couples should not be denied the right to marry due to their biology.
p32
aVGay couples can declare their union without resort to marriage
p33
aVGay couples should be able to take advantage of the fiscal and legal benefits of marriage
p34
aVGay marriage undermines the institution of marriage, leading to an increase in out of wedlock births and divorce rates
p35
aVIt is discriminatory to refuse gay couples the right to marry
p36
aVMajor world religions are against gay marriages
p37
aVMarriage is about more than procreation, therefore gay couples should not be denied the right to marry due to their biology.
p38
aVMarriage should be between a man and a woman
p39
aVGay couples can declare their union without resort to marriage
p40
aVGay couples should be able to take advantage of the fiscal and legal benefits of marriage
p41
aVGay marriage undermines the institution of marriage, leading to an increase in out of wedlock births and divorce rates
p42
aVMajor world religions are against gay marriages
p43
aVMarriage is about more than procreation, therefore gay couples should not be denied the right to marry due to their biology.
p44
aVMarriage should be between a man and a woman
p45
aVGay couples can declare their union without resort to marriage
p46
aVGay couples should be able to take advantage of the fiscal and legal benefits of marriage
p47
aVGay marriage undermines the institution of marriage, leading to an increase in out of wedlock births and divorce rates
p48
aVIt is discriminatory to refuse gay couples the right to marry
p49
aVMajor world religions are against gay marriages
p50
aVMarriage is about more than procreation, therefore gay couples should not be denied the right to marry due to their biology.
p51
aVMarriage should be between a man and a woman
p52
aVGay couples can declare their union without resort to marriage
p53
aVGay couples should be able to take advantage of the fiscal and legal benefits of marriage
p54
aVGay marriage undermines the institution of marriage, leading to an increase in out of wedlock births and divorce rates
p55
aVIt is discriminatory to refuse gay couples the right to marry
p56
aVMajor world religions are against gay marriages
p57
aVMarriage is about more than procreation, therefore gay couples should not be denied the right to marry due to their biology.
p58
aVMarriage should be between a man and a woman
p59
aVGay couples can declare their union without resort to marriage
p60
aVGay couples should be able to take advantage of the fiscal and legal benefits of marriage
p61
aVGay marriage undermines the institution of marriage, leading to an increase in out of wedlock births and divorce rates
p62
aVIt is discriminatory to refuse gay couples the right to marry
p63
aVMajor world religions are against gay marriages
p64
aVMarriage is about more than procreation, therefore gay couples should not be denied the right to marry due to their biology.
p65
aVMarriage should be between a man and a woman
p66
aVGay couples can declare their union without resort to marriage
p67
aVGay couples should be able to take advantage of the fiscal and legal benefits of marriage
p68
aVGay marriage undermines the institution of marriage, leading to an increase in out of wedlock births and divorce rates
p69
aVIt is discriminatory to refuse gay couples the right to marry
p70
aVMajor world religions are against gay marriages
p71
aVMarriage is about more than procreation, therefore gay couples should not be denied the right to marry due to their biology.
p72
aVGay couples can declare their union without resort to marriage
p73
aVGay couples should be able to take advantage of the fiscal and legal benefits of marriage
p74
aVGay marriage undermines the institution of marriage, leading to an increase in out of wedlock births and divorce rates
p75
aVIt is discriminatory to refuse gay couples the right to marry
p76
aVMajor world religions are against gay marriages
p77
aVMarriage is about more than procreation, therefore gay couples should not be denied the right to marry due to their biology.
p78
aVMarriage should be between a man and a woman
p79
aVGay couples can declare their union without resort to marriage
p80
aVGay couples should be able to take advantage of the fiscal and legal benefits of marriage
p81
aVGay marriage undermines the institution of marriage, leading to an increase in out of wedlock births and divorce rates
p82
aVMarriage is about more than procreation, therefore gay couples should not be denied the right to marry due to their biology.
p83
aVMarriage should be between a man and a woman
p84
aVGay couples can declare their union without resort to marriage
p85
aVGay couples should be able to take advantage of the fiscal and legal benefits of marriage
p86
aVGay marriage undermines the institution of marriage, leading to an increase in out of wedlock births and divorce rates
p87
aVIt is discriminatory to refuse gay couples the right to marry
p88
aVMajor world religions are against gay marriages
p89
aVMarriage is about more than procreation, therefore gay couples should not be denied the right to marry due to their biology.
p90
aVMarriage should be between a man and a woman
p91
aVGay couples can declare their union without resort to marriage
p92
aVGay couples should be able to take advantage of the fiscal and legal benefits of marriage
p93
aVGay marriage undermines the institution of marriage, leading to an increase in out of wedlock births and divorce rates
p94
aVIt is discriminatory to refuse gay couples the right to marry
p95
aVMajor world religions are against gay marriages
p96
aVMarriage should be between a man and a woman
p97
aVGay couples can declare their union without resort to marriage
p98
aVGay couples should be able to take advantage of the fiscal and legal benefits of marriage
p99
aVGay marriage undermines the institution of marriage, leading to an increase in out of wedlock births and divorce rates
p100
aVIt is discriminatory to refuse gay couples the right to marry
p101
aVMarriage is about more than procreation, therefore gay couples should not be denied the right to marry due to their biology.
p102
aVMarriage should be between a man and a woman
p103
aVGay couples can declare their union without resort to marriage
p104
aVGay couples should be able to take advantage of the fiscal and legal benefits of marriage
p105
aVGay marriage undermines the institution of marriage, leading to an increase in out of wedlock births and divorce rates
p106
aVIt is discriminatory to refuse gay couples the right to marry
p107
aVMajor world religions are against gay marriages
p108
aVMarriage is about more than procreation, therefore gay couples should not be denied the right to marry due to their biology.
p109
aVMarriage should be between a man and a woman
p110
aVGay couples can declare their union without resort to marriage
p111
aVGay couples should be able to take advantage of the fiscal and legal benefits of marriage
p112
aVGay marriage undermines the institution of marriage, leading to an increase in out of wedlock births and divorce rates
p113
aVIt is discriminatory to refuse gay couples the right to marry
p114
aVMarriage is about more than procreation, therefore gay couples should not be denied the right to marry due to their biology.
p115
aVMarriage should be between a man and a woman
p116
aVGay couples can declare their union without resort to marriage
p117
aVGay couples should be able to take advantage of the fiscal and legal benefits of marriage
p118
aVGay marriage undermines the institution of marriage, leading to an increase in out of wedlock births and divorce rates
p119
aVIt is discriminatory to refuse gay couples the right to marry
p120
aVMarriage is about more than procreation, therefore gay couples should not be denied the right to marry due to their biology.
p121
aVGay couples can declare their union without resort to marriage
p122
aVGay couples should be able to take advantage of the fiscal and legal benefits of marriage
p123
aVGay marriage undermines the institution of marriage, leading to an increase in out of wedlock births and divorce rates
p124
aVIt is discriminatory to refuse gay couples the right to marry
p125
aVMajor world religions are against gay marriages
p126
aVMarriage is about more than procreation, therefore gay couples should not be denied the right to marry due to their biology.
p127
aVMarriage should be between a man and a woman
p128
aVGay couples can declare their union without resort to marriage
p129
aVGay couples should be able to take advantage of the fiscal and legal benefits of marriage
p130
aVGay marriage undermines the institution of marriage, leading to an increase in out of wedlock births and divorce rates
p131
aVIt is discriminatory to refuse gay couples the right to marry
p132
aVMajor world religions are against gay marriages
p133
aVMarriage is about more than procreation, therefore gay couples should not be denied the right to marry due to their biology.
p134
aVMarriage should be between a man and a woman
p135
aVGay couples can declare their union without resort to marriage
p136
aVGay couples should be able to take advantage of the fiscal and legal benefits of marriage
p137
aVGay marriage undermines the institution of marriage, leading to an increase in out of wedlock births and divorce rates
p138
aVIt is discriminatory to refuse gay couples the right to marry
p139
aVMajor world religions are against gay marriages
p140
aVMarriage is about more than procreation, therefore gay couples should not be denied the right to marry due to their biology.
p141
aVMarriage should be between a man and a woman
p142
aVGay couples can declare their union without resort to marriage
p143
aVGay couples should be able to take advantage of the fiscal and legal benefits of marriage
p144
aVGay marriage undermines the institution of marriage, leading to an increase in out of wedlock births and divorce rates
p145
aVIt is discriminatory to refuse gay couples the right to marry
p146
aVMarriage is about more than procreation, therefore gay couples should not be denied the right to marry due to their biology.
p147
aVGay couples can declare their union without resort to marriage
p148
aVGay couples should be able to take advantage of the fiscal and legal benefits of marriage
p149
aVGay marriage undermines the institution of marriage, leading to an increase in out of wedlock births and divorce rates
p150
aVIt is discriminatory to refuse gay couples the right to marry
p151
aVMajor world religions are against gay marriages
p152
aVMarriage is about more than procreation, therefore gay couples should not be denied the right to marry due to their biology.
p153
aVMarriage should be between a man and a woman
p154
aVGay couples can declare their union without resort to marriage
p155
aVGay couples should be able to take advantage of the fiscal and legal benefits of marriage
p156
aVGay marriage undermines the institution of marriage, leading to an increase in out of wedlock births and divorce rates
p157
aVMajor world religions are against gay marriages
p158
aVMarriage is about more than procreation, therefore gay couples should not be denied the right to marry due to their biology.
p159
aVMarriage should be between a man and a woman
p160
aVGay couples can declare their union without resort to marriage
p161
aVGay couples should be able to take advantage of the fiscal and legal benefits of marriage
p162
aVGay marriage undermines the institution of marriage, leading to an increase in out of wedlock births and divorce rates
p163
aVIt is discriminatory to refuse gay couples the right to marry
p164
aVMajor world religions are against gay marriages
p165
aVMarriage is about more than procreation, therefore gay couples should not be denied the right to marry due to their biology.
p166
aVMarriage should be between a man and a woman
p167
aVGay couples can declare their union without resort to marriage
p168
aVGay couples should be able to take advantage of the fiscal and legal benefits of marriage
p169
aVGay marriage undermines the institution of marriage, leading to an increase in out of wedlock births and divorce rates
p170
aVIt is discriminatory to refuse gay couples the right to marry
p171
aVMajor world religions are against gay marriages
p172
aVMarriage is about more than procreation, therefore gay couples should not be denied the right to marry due to their biology.
p173
aVMarriage should be between a man and a woman
p174
aVGay couples can declare their union without resort to marriage
p175
aVGay couples should be able to take advantage of the fiscal and legal benefits of marriage
p176
aVGay marriage undermines the institution of marriage, leading to an increase in out of wedlock births and divorce rates
p177
aVIt is discriminatory to refuse gay couples the right to marry
p178
aVMajor world religions are against gay marriages
p179
aVMarriage is about more than procreation, therefore gay couples should not be denied the right to marry due to their biology.
p180
aVMarriage should be between a man and a woman
p181
aVGay couples can declare their union without resort to marriage
p182
aVGay couples should be able to take advantage of the fiscal and legal benefits of marriage
p183
aVGay marriage undermines the institution of marriage, leading to an increase in out of wedlock births and divorce rates
p184
aVIt is discriminatory to refuse gay couples the right to marry
p185
aVMajor world religions are against gay marriages
p186
aVMarriage is about more than procreation, therefore gay couples should not be denied the right to marry due to their biology.
p187
aVMarriage should be between a man and a woman
p188
aVGay couples can declare their union without resort to marriage
p189
aVGay couples should be able to take advantage of the fiscal and legal benefits of marriage
p190
aVGay marriage undermines the institution of marriage, leading to an increase in out of wedlock births and divorce rates
p191
aVIt is discriminatory to refuse gay couples the right to marry
p192
aVMarriage is about more than procreation, therefore gay couples should not be denied the right to marry due to their biology.
p193
aVMarriage should be between a man and a woman
p194
aVGay couples can declare their union without resort to marriage
p195
aVGay couples should be able to take advantage of the fiscal and legal benefits of marriage
p196
aVGay marriage undermines the institution of marriage, leading to an increase in out of wedlock births and divorce rates
p197
aVIt is discriminatory to refuse gay couples the right to marry
p198
aVMarriage is about more than procreation, therefore gay couples should not be denied the right to marry due to their biology.
p199
aVMarriage should be between a man and a woman
p200
aVGay couples can declare their union without resort to marriage
p201
aVGay couples should be able to take advantage of the fiscal and legal benefits of marriage
p202
aVGay marriage undermines the institution of marriage, leading to an increase in out of wedlock births and divorce rates
p203
aVIt is discriminatory to refuse gay couples the right to marry
p204
aVMajor world religions are against gay marriages
p205
aVMarriage is about more than procreation, therefore gay couples should not be denied the right to marry due to their biology.
p206
aVGay couples can declare their union without resort to marriage
p207
aVGay couples should be able to take advantage of the fiscal and legal benefits of marriage
p208
aVGay marriage undermines the institution of marriage, leading to an increase in out of wedlock births and divorce rates
p209
aVIt is discriminatory to refuse gay couples the right to marry
p210
aVMajor world religions are against gay marriages
p211
aVMarriage is about more than procreation, therefore gay couples should not be denied the right to marry due to their biology.
p212
aVMarriage should be between a man and a woman
p213
aVGay couples can declare their union without resort to marriage
p214
aVGay couples should be able to take advantage of the fiscal and legal benefits of marriage
p215
aVGay marriage undermines the institution of marriage, leading to an increase in out of wedlock births and divorce rates
p216
aVIt is discriminatory to refuse gay couples the right to marry
p217
aVMajor world religions are against gay marriages
p218
aVMarriage is about more than procreation, therefore gay couples should not be denied the right to marry due to their biology.
p219
aVMarriage should be between a man and a woman
p220
aVGay couples can declare their union without resort to marriage
p221
aVGay couples should be able to take advantage of the fiscal and legal benefits of marriage
p222
aVGay marriage undermines the institution of marriage, leading to an increase in out of wedlock births and divorce rates
p223
aVIt is discriminatory to refuse gay couples the right to marry
p224
aVMarriage is about more than procreation, therefore gay couples should not be denied the right to marry due to their biology.
p225
aVMarriage should be between a man and a woman
p226
aVGay couples can declare their union without resort to marriage
p227
aVGay couples should be able to take advantage of the fiscal and legal benefits of marriage
p228
aVGay marriage undermines the institution of marriage, leading to an increase in out of wedlock births and divorce rates
p229
aVIt is discriminatory to refuse gay couples the right to marry
p230
aVMajor world religions are against gay marriages
p231
aVMarriage is about more than procreation, therefore gay couples should not be denied the right to marry due to their biology.
p232
aVGay couples can declare their union without resort to marriage
p233
aVGay couples should be able to take advantage of the fiscal and legal benefits of marriage
p234
aVGay marriage undermines the institution of marriage, leading to an increase in out of wedlock births and divorce rates
p235
aVIt is discriminatory to refuse gay couples the right to marry
p236
aVMajor world religions are against gay marriages
p237
aVMarriage is about more than procreation, therefore gay couples should not be denied the right to marry due to their biology.
p238
aVMarriage should be between a man and a woman
p239
aVGay couples can declare their union without resort to marriage
p240
aVGay couples should be able to take advantage of the fiscal and legal benefits of marriage
p241
aVGay marriage undermines the institution of marriage, leading to an increase in out of wedlock births and divorce rates
p242
aVIt is discriminatory to refuse gay couples the right to marry
p243
aVMajor world religions are against gay marriages
p244
aVMarriage is about more than procreation, therefore gay couples should not be denied the right to marry due to their biology.
p245
aVMarriage should be between a man and a woman
p246
aVGay couples can declare their union without resort to marriage
p247
aVGay couples should be able to take advantage of the fiscal and legal benefits of marriage
p248
aVGay marriage undermines the institution of marriage, leading to an increase in out of wedlock births and divorce rates
p249
aVMajor world religions are against gay marriages
p250
aVMarriage is about more than procreation, therefore gay couples should not be denied the right to marry due to their biology.
p251
aVMarriage should be between a man and a woman
p252
aVGay couples can declare their union without resort to marriage
p253
aVGay couples should be able to take advantage of the fiscal and legal benefits of marriage
p254
aVGay marriage undermines the institution of marriage, leading to an increase in out of wedlock births and divorce rates
p255
aVIt is discriminatory to refuse gay couples the right to marry
p256
aVMarriage is about more than procreation, therefore gay couples should not be denied the right to marry due to their biology.
p257
aVMarriage should be between a man and a woman
p258
aVGay couples can declare their union without resort to marriage
p259
aVGay couples should be able to take advantage of the fiscal and legal benefits of marriage
p260
aVGay marriage undermines the institution of marriage, leading to an increase in out of wedlock births and divorce rates
p261
aVIt is discriminatory to refuse gay couples the right to marry
p262
aVMajor world religions are against gay marriages
p263
aVMarriage is about more than procreation, therefore gay couples should not be denied the right to marry due to their biology.
p264
aVMarriage should be between a man and a woman
p265
aVGay couples can declare their union without resort to marriage
p266
aVGay couples should be able to take advantage of the fiscal and legal benefits of marriage
p267
aVGay marriage undermines the institution of marriage, leading to an increase in out of wedlock births and divorce rates
p268
aVMajor world religions are against gay marriages
p269
aVMarriage is about more than procreation, therefore gay couples should not be denied the right to marry due to their biology.
p270
aVMarriage should be between a man and a woman
p271
aVGay couples can declare their union without resort to marriage
p272
aVGay couples should be able to take advantage of the fiscal and legal benefits of marriage
p273
aVGay marriage undermines the institution of marriage, leading to an increase in out of wedlock births and divorce rates
p274
aVIt is discriminatory to refuse gay couples the right to marry
p275
aVMajor world religions are against gay marriages
p276
aVMarriage is about more than procreation, therefore gay couples should not be denied the right to marry due to their biology.
p277
aVMarriage should be between a man and a woman
p278
aVGay couples can declare their union without resort to marriage
p279
aVGay marriage undermines the institution of marriage, leading to an increase in out of wedlock births and divorce rates
p280
aVIt is discriminatory to refuse gay couples the right to marry
p281
aVMajor world religions are against gay marriages
p282
aVMarriage is about more than procreation, therefore gay couples should not be denied the right to marry due to their biology.
p283
aVGay couples can declare their union without resort to marriage
p284
aVGay couples should be able to take advantage of the fiscal and legal benefits of marriage
p285
aVGay marriage undermines the institution of marriage, leading to an increase in out of wedlock births and divorce rates
p286
aVIt is discriminatory to refuse gay couples the right to marry
p287
aVMajor world religions are against gay marriages
p288
aVMarriage is about more than procreation, therefore gay couples should not be denied the right to marry due to their biology.
p289
aVMarriage should be between a man and a woman
p290
aVGay couples can declare their union without resort to marriage
p291
aVGay couples should be able to take advantage of the fiscal and legal benefits of marriage
p292
aVGay marriage undermines the institution of marriage, leading to an increase in out of wedlock births and divorce rates
p293
aVIt is discriminatory to refuse gay couples the right to marry
p294
aVMajor world religions are against gay marriages
p295
aVMarriage is about more than procreation, therefore gay couples should not be denied the right to marry due to their biology.
p296
aVMarriage should be between a man and a woman
p297
aVGay couples can declare their union without resort to marriage
p298
aVGay couples should be able to take advantage of the fiscal and legal benefits of marriage
p299
aVGay marriage undermines the institution of marriage, leading to an increase in out of wedlock births and divorce rates
p300
aVIt is discriminatory to refuse gay couples the right to marry
p301
aVMarriage should be between a man and a woman
p302
aVGay couples can declare their union without resort to marriage
p303
aVGay couples should be able to take advantage of the fiscal and legal benefits of marriage
p304
aVGay marriage undermines the institution of marriage, leading to an increase in out of wedlock births and divorce rates
p305
aVIt is discriminatory to refuse gay couples the right to marry
p306
aVMajor world religions are against gay marriages
p307
aVMarriage is about more than procreation, therefore gay couples should not be denied the right to marry due to their biology.
p308
aVMarriage should be between a man and a woman
p309
aVGay couples can declare their union without resort to marriage
p310
aVGay couples should be able to take advantage of the fiscal and legal benefits of marriage
p311
aVGay marriage undermines the institution of marriage, leading to an increase in out of wedlock births and divorce rates
p312
aVIt is discriminatory to refuse gay couples the right to marry
p313
aVMajor world religions are against gay marriages
p314
aVMarriage is about more than procreation, therefore gay couples should not be denied the right to marry due to their biology.
p315
aVMarriage should be between a man and a woman
p316
aVGay couples can declare their union without resort to marriage
p317
aVGay couples should be able to take advantage of the fiscal and legal benefits of marriage
p318
aVGay marriage undermines the institution of marriage, leading to an increase in out of wedlock births and divorce rates
p319
aVIt is discriminatory to refuse gay couples the right to marry
p320
aVMajor world religions are against gay marriages
p321
aVMarriage is about more than procreation, therefore gay couples should not be denied the right to marry due to their biology.
p322
aVMarriage should be between a man and a woman
p323
aVGay couples can declare their union without resort to marriage
p324
aVGay couples should be able to take advantage of the fiscal and legal benefits of marriage
p325
aVGay marriage undermines the institution of marriage, leading to an increase in out of wedlock births and divorce rates
p326
aVIt is discriminatory to refuse gay couples the right to marry
p327
aVMajor world religions are against gay marriages
p328
aVMarriage is about more than procreation, therefore gay couples should not be denied the right to marry due to their biology.
p329
aVMarriage should be between a man and a woman
p330
aVGay couples can declare their union without resort to marriage
p331
aVGay couples should be able to take advantage of the fiscal and legal benefits of marriage
p332
aVGay marriage undermines the institution of marriage, leading to an increase in out of wedlock births and divorce rates
p333
aVIt is discriminatory to refuse gay couples the right to marry
p334
aVMarriage is about more than procreation, therefore gay couples should not be denied the right to marry due to their biology.
p335
aVMarriage should be between a man and a woman
p336
aVGay couples can declare their union without resort to marriage
p337
aVGay couples should be able to take advantage of the fiscal and legal benefits of marriage
p338
aVGay marriage undermines the institution of marriage, leading to an increase in out of wedlock births and divorce rates
p339
aVIt is discriminatory to refuse gay couples the right to marry
p340
aVMajor world religions are against gay marriages
p341
aVMarriage is about more than procreation, therefore gay couples should not be denied the right to marry due to their biology.
p342
aVMarriage should be between a man and a woman
p343
aVGay couples can declare their union without resort to marriage
p344
aVGay couples should be able to take advantage of the fiscal and legal benefits of marriage
p345
aVGay marriage undermines the institution of marriage, leading to an increase in out of wedlock births and divorce rates
p346
aVIt is discriminatory to refuse gay couples the right to marry
p347
aVMajor world religions are against gay marriages
p348
aVMarriage is about more than procreation, therefore gay couples should not be denied the right to marry due to their biology.
p349
aVMarriage should be between a man and a woman
p350
aVGay couples can declare their union without resort to marriage
p351
aVGay couples should be able to take advantage of the fiscal and legal benefits of marriage
p352
aVGay marriage undermines the institution of marriage, leading to an increase in out of wedlock births and divorce rates
p353
aVIt is discriminatory to refuse gay couples the right to marry
p354
aVMajor world religions are against gay marriages
p355
aVMarriage is about more than procreation, therefore gay couples should not be denied the right to marry due to their biology.
p356
aVMarriage should be between a man and a woman
p357
aVGay couples can declare their union without resort to marriage
p358
aVGay couples should be able to take advantage of the fiscal and legal benefits of marriage
p359
aVGay marriage undermines the institution of marriage, leading to an increase in out of wedlock births and divorce rates
p360
aVIt is discriminatory to refuse gay couples the right to marry
p361
aVMajor world religions are against gay marriages
p362
aVMarriage is about more than procreation, therefore gay couples should not be denied the right to marry due to their biology.
p363
aVMarriage should be between a man and a woman
p364
aVGay couples can declare their union without resort to marriage
p365
aVGay couples should be able to take advantage of the fiscal and legal benefits of marriage
p366
aVGay marriage undermines the institution of marriage, leading to an increase in out of wedlock births and divorce rates
p367
aVIt is discriminatory to refuse gay couples the right to marry
p368
aVMajor world religions are against gay marriages
p369
aVMarriage is about more than procreation, therefore gay couples should not be denied the right to marry due to their biology.
p370
aVMarriage should be between a man and a woman
p371
aVGay couples can declare their union without resort to marriage
p372
aVGay couples should be able to take advantage of the fiscal and legal benefits of marriage
p373
aVGay marriage undermines the institution of marriage, leading to an increase in out of wedlock births and divorce rates
p374
aVIt is discriminatory to refuse gay couples the right to marry
p375
aVMajor world religions are against gay marriages
p376
aVMarriage is about more than procreation, therefore gay couples should not be denied the right to marry due to their biology.
p377
aVMarriage should be between a man and a woman
p378
aVGay couples can declare their union without resort to marriage
p379
aVGay couples should be able to take advantage of the fiscal and legal benefits of marriage
p380
aVGay marriage undermines the institution of marriage, leading to an increase in out of wedlock births and divorce rates
p381
aVIt is discriminatory to refuse gay couples the right to marry
p382
aVMajor world religions are against gay marriages
p383
aVMarriage is about more than procreation, therefore gay couples should not be denied the right to marry due to their biology.
p384
aVMarriage should be between a man and a woman
p385
aVGay couples can declare their union without resort to marriage
p386
aVGay couples should be able to take advantage of the fiscal and legal benefits of marriage
p387
aVGay marriage undermines the institution of marriage, leading to an increase in out of wedlock births and divorce rates
p388
aVIt is discriminatory to refuse gay couples the right to marry
p389
aVMajor world religions are against gay marriages
p390
aVMarriage is about more than procreation, therefore gay couples should not be denied the right to marry due to their biology.
p391
aVMarriage should be between a man and a woman
p392
aVGay couples can declare their union without resort to marriage
p393
aVGay couples should be able to take advantage of the fiscal and legal benefits of marriage
p394
aVGay marriage undermines the institution of marriage, leading to an increase in out of wedlock births and divorce rates
p395
aVMajor world religions are against gay marriages
p396
aVMarriage is about more than procreation, therefore gay couples should not be denied the right to marry due to their biology.
p397
aVMarriage should be between a man and a woman
p398
aVGay couples can declare their union without resort to marriage
p399
aVGay marriage undermines the institution of marriage, leading to an increase in out of wedlock births and divorce rates
p400
aVIt is discriminatory to refuse gay couples the right to marry
p401
aVMajor world religions are against gay marriages
p402
aVMarriage is about more than procreation, therefore gay couples should not be denied the right to marry due to their biology.
p403
aVMarriage should be between a man and a woman
p404
aVGay couples can declare their union without resort to marriage
p405
aVGay couples should be able to take advantage of the fiscal and legal benefits of marriage
p406
aVGay marriage undermines the institution of marriage, leading to an increase in out of wedlock births and divorce rates
p407
aVMajor world religions are against gay marriages
p408
aVMarriage is about more than procreation, therefore gay couples should not be denied the right to marry due to their biology.
p409
aVMarriage should be between a man and a woman
p410
aVGay couples can declare their union without resort to marriage
p411
aVGay couples should be able to take advantage of the fiscal and legal benefits of marriage
p412
aVGay marriage undermines the institution of marriage, leading to an increase in out of wedlock births and divorce rates
p413
aVIt is discriminatory to refuse gay couples the right to marry
p414
aVMarriage is about more than procreation, therefore gay couples should not be denied the right to marry due to their biology.
p415
aVMarriage should be between a man and a woman
p416
aVGay couples can declare their union without resort to marriage
p417
aVGay couples should be able to take advantage of the fiscal and legal benefits of marriage
p418
aVGay marriage undermines the institution of marriage, leading to an increase in out of wedlock births and divorce rates
p419
aVIt is discriminatory to refuse gay couples the right to marry
p420
aVMajor world religions are against gay marriages
p421
aVMarriage is about more than procreation, therefore gay couples should not be denied the right to marry due to their biology.
p422
aVMarriage should be between a man and a woman
p423
aVGay couples can declare their union without resort to marriage
p424
aVGay couples should be able to take advantage of the fiscal and legal benefits of marriage
p425
aVGay marriage undermines the institution of marriage, leading to an increase in out of wedlock births and divorce rates
p426
aVIt is discriminatory to refuse gay couples the right to marry
p427
aVMajor world religions are against gay marriages
p428
aVMarriage is about more than procreation, therefore gay couples should not be denied the right to marry due to their biology.
p429
aVMarriage should be between a man and a woman
p430
aVGay couples can declare their union without resort to marriage
p431
aVGay couples should be able to take advantage of the fiscal and legal benefits of marriage
p432
aVGay marriage undermines the institution of marriage, leading to an increase in out of wedlock births and divorce rates
p433
aVIt is discriminatory to refuse gay couples the right to marry
p434
aVMarriage is about more than procreation, therefore gay couples should not be denied the right to marry due to their biology.
p435
aVMarriage should be between a man and a woman
p436
aVGay couples can declare their union without resort to marriage
p437
aVGay couples should be able to take advantage of the fiscal and legal benefits of marriage
p438
aVGay marriage undermines the institution of marriage, leading to an increase in out of wedlock births and divorce rates
p439
aVIt is discriminatory to refuse gay couples the right to marry
p440
aVMajor world religions are against gay marriages
p441
aVMarriage is about more than procreation, therefore gay couples should not be denied the right to marry due to their biology.
p442
aVMarriage should be between a man and a woman
p443
aVGay couples can declare their union without resort to marriage
p444
aVGay couples should be able to take advantage of the fiscal and legal benefits of marriage
p445
aVGay marriage undermines the institution of marriage, leading to an increase in out of wedlock births and divorce rates
p446
aVIt is discriminatory to refuse gay couples the right to marry
p447
aVMajor world religions are against gay marriages
p448
aVMarriage is about more than procreation, therefore gay couples should not be denied the right to marry due to their biology.
p449
aVMarriage should be between a man and a woman
p450
aVGay couples can declare their union without resort to marriage
p451
aVGay couples should be able to take advantage of the fiscal and legal benefits of marriage
p452
aVGay marriage undermines the institution of marriage, leading to an increase in out of wedlock births and divorce rates
p453
aVIt is discriminatory to refuse gay couples the right to marry
p454
aVMarriage is about more than procreation, therefore gay couples should not be denied the right to marry due to their biology.
p455
aVMarriage should be between a man and a woman
p456
aVGay couples can declare their union without resort to marriage
p457
aVGay couples should be able to take advantage of the fiscal and legal benefits of marriage
p458
aVGay marriage undermines the institution of marriage, leading to an increase in out of wedlock births and divorce rates
p459
aVIt is discriminatory to refuse gay couples the right to marry
p460
aVMajor world religions are against gay marriages
p461
aVMarriage is about more than procreation, therefore gay couples should not be denied the right to marry due to their biology.
p462
aVMarriage should be between a man and a woman
p463
aVGay couples can declare their union without resort to marriage
p464
aVGay couples should be able to take advantage of the fiscal and legal benefits of marriage
p465
aVGay marriage undermines the institution of marriage, leading to an increase in out of wedlock births and divorce rates
p466
aVIt is discriminatory to refuse gay couples the right to marry
p467
aVMajor world religions are against gay marriages
p468
aVMarriage is about more than procreation, therefore gay couples should not be denied the right to marry due to their biology.
p469
aVMarriage should be between a man and a woman
p470
aVGay couples can declare their union without resort to marriage
p471
aVGay couples should be able to take advantage of the fiscal and legal benefits of marriage
p472
aVGay marriage undermines the institution of marriage, leading to an increase in out of wedlock births and divorce rates
p473
aVIt is discriminatory to refuse gay couples the right to marry
p474
aVMajor world religions are against gay marriages
p475
aVMarriage is about more than procreation, therefore gay couples should not be denied the right to marry due to their biology.
p476
aVMarriage should be between a man and a woman
p477
aVGay couples can declare their union without resort to marriage
p478
aVGay couples should be able to take advantage of the fiscal and legal benefits of marriage
p479
aVGay marriage undermines the institution of marriage, leading to an increase in out of wedlock births and divorce rates
p480
aVIt is discriminatory to refuse gay couples the right to marry
p481
aVMajor world religions are against gay marriages
p482
aVMarriage is about more than procreation, therefore gay couples should not be denied the right to marry due to their biology.
p483
aVMarriage should be between a man and a woman
p484
aVGay couples can declare their union without resort to marriage
p485
aVGay couples should be able to take advantage of the fiscal and legal benefits of marriage
p486
aVGay marriage undermines the institution of marriage, leading to an increase in out of wedlock births and divorce rates
p487
aVMajor world religions are against gay marriages
p488
aVMarriage is about more than procreation, therefore gay couples should not be denied the right to marry due to their biology.
p489
aVMarriage should be between a man and a woman
p490
aVGay couples can declare their union without resort to marriage
p491
aVGay couples should be able to take advantage of the fiscal and legal benefits of marriage
p492
aVGay marriage undermines the institution of marriage, leading to an increase in out of wedlock births and divorce rates
p493
aVIt is discriminatory to refuse gay couples the right to marry
p494
aVMajor world religions are against gay marriages
p495
aVMarriage is about more than procreation, therefore gay couples should not be denied the right to marry due to their biology.
p496
aVMarriage should be between a man and a woman
p497
aVGay couples can declare their union without resort to marriage
p498
aVGay couples should be able to take advantage of the fiscal and legal benefits of marriage
p499
aVGay marriage undermines the institution of marriage, leading to an increase in out of wedlock births and divorce rates
p500
aVIt is discriminatory to refuse gay couples the right to marry
p501
aVMajor world religions are against gay marriages
p502
aVMarriage is about more than procreation, therefore gay couples should not be denied the right to marry due to their biology.
p503
aVMarriage should be between a man and a woman
p504
aVGay couples can declare their union without resort to marriage
p505
aVGay couples should be able to take advantage of the fiscal and legal benefits of marriage
p506
aVGay marriage undermines the institution of marriage, leading to an increase in out of wedlock births and divorce rates
p507
aVMajor world religions are against gay marriages
p508
aVMarriage is about more than procreation, therefore gay couples should not be denied the right to marry due to their biology.
p509
aVMarriage should be between a man and a woman
p510
aVGay couples can declare their union without resort to marriage
p511
aVGay couples should be able to take advantage of the fiscal and legal benefits of marriage
p512
aVGay marriage undermines the institution of marriage, leading to an increase in out of wedlock births and divorce rates
p513
aVIt is discriminatory to refuse gay couples the right to marry
p514
aVMarriage is about more than procreation, therefore gay couples should not be denied the right to marry due to their biology.
p515
aVMarriage should be between a man and a woman
p516
aVGay couples can declare their union without resort to marriage
p517
aVGay couples should be able to take advantage of the fiscal and legal benefits of marriage
p518
aVGay marriage undermines the institution of marriage, leading to an increase in out of wedlock births and divorce rates
p519
aVIt is discriminatory to refuse gay couples the right to marry
p520
aVMajor world religions are against gay marriages
p521
aVMarriage is about more than procreation, therefore gay couples should not be denied the right to marry due to their biology.
p522
aVMarriage should be between a man and a woman
p523
aVGay couples can declare their union without resort to marriage
p524
aVGay couples should be able to take advantage of the fiscal and legal benefits of marriage
p525
aVGay marriage undermines the institution of marriage, leading to an increase in out of wedlock births and divorce rates
p526
aVMajor world religions are against gay marriages
p527
aVMarriage is about more than procreation, therefore gay couples should not be denied the right to marry due to their biology.
p528
aVMarriage should be between a man and a woman
p529
aVGay couples can declare their union without resort to marriage
p530
aVGay couples should be able to take advantage of the fiscal and legal benefits of marriage
p531
aVGay marriage undermines the institution of marriage, leading to an increase in out of wedlock births and divorce rates
p532
aVIt is discriminatory to refuse gay couples the right to marry
p533
aVMajor world religions are against gay marriages
p534
aVMarriage is about more than procreation, therefore gay couples should not be denied the right to marry due to their biology.
p535
aVMarriage should be between a man and a woman
p536
aVGay couples can declare their union without resort to marriage
p537
aVGay couples should be able to take advantage of the fiscal and legal benefits of marriage
p538
aVGay marriage undermines the institution of marriage, leading to an increase in out of wedlock births and divorce rates
p539
aVIt is discriminatory to refuse gay couples the right to marry
p540
aVMajor world religions are against gay marriages
p541
aVMarriage is about more than procreation, therefore gay couples should not be denied the right to marry due to their biology.
p542
aVGay couples can declare their union without resort to marriage
p543
aVGay couples should be able to take advantage of the fiscal and legal benefits of marriage
p544
aVGay marriage undermines the institution of marriage, leading to an increase in out of wedlock births and divorce rates
p545
aVMajor world religions are against gay marriages
p546
aVMarriage is about more than procreation, therefore gay couples should not be denied the right to marry due to their biology.
p547
aVMarriage should be between a man and a woman
p548
aVGay couples can declare their union without resort to marriage
p549
aVGay couples should be able to take advantage of the fiscal and legal benefits of marriage
p550
aVGay marriage undermines the institution of marriage, leading to an increase in out of wedlock births and divorce rates
p551
aVMajor world religions are against gay marriages
p552
aVMarriage is about more than procreation, therefore gay couples should not be denied the right to marry due to their biology.
p553
aVMarriage should be between a man and a woman
p554
aVGay couples can declare their union without resort to marriage
p555
aVGay couples should be able to take advantage of the fiscal and legal benefits of marriage
p556
aVGay marriage undermines the institution of marriage, leading to an increase in out of wedlock births and divorce rates
p557
aVIt is discriminatory to refuse gay couples the right to marry
p558
aVMajor world religions are against gay marriages
p559
aVMarriage is about more than procreation, therefore gay couples should not be denied the right to marry due to their biology.
p560
aVMarriage should be between a man and a woman
p561
aVGay couples can declare their union without resort to marriage
p562
aVGay couples should be able to take advantage of the fiscal and legal benefits of marriage
p563
aVGay marriage undermines the institution of marriage, leading to an increase in out of wedlock births and divorce rates
p564
aVMajor world religions are against gay marriages
p565
aVMarriage is about more than procreation, therefore gay couples should not be denied the right to marry due to their biology.
p566
aVMarriage should be between a man and a woman
p567
aVGay couples can declare their union without resort to marriage
p568
aVGay couples should be able to take advantage of the fiscal and legal benefits of marriage
p569
aVGay marriage undermines the institution of marriage, leading to an increase in out of wedlock births and divorce rates
p570
aVIt is discriminatory to refuse gay couples the right to marry
p571
aVMajor world religions are against gay marriages
p572
aVMarriage is about more than procreation, therefore gay couples should not be denied the right to marry due to their biology.
p573
aVMarriage should be between a man and a woman
p574
aVGay couples can declare their union without resort to marriage
p575
aVGay couples should be able to take advantage of the fiscal and legal benefits of marriage
p576
aVGay marriage undermines the institution of marriage, leading to an increase in out of wedlock births and divorce rates
p577
aVMajor world religions are against gay marriages
p578
aVMarriage is about more than procreation, therefore gay couples should not be denied the right to marry due to their biology.
p579
aVMarriage should be between a man and a woman
p580
aVGay couples can declare their union without resort to marriage
p581
aVGay couples should be able to take advantage of the fiscal and legal benefits of marriage
p582
aVGay marriage undermines the institution of marriage, leading to an increase in out of wedlock births and divorce rates
p583
aVIt is discriminatory to refuse gay couples the right to marry
p584
aVMajor world religions are against gay marriages
p585
aVMarriage is about more than procreation, therefore gay couples should not be denied the right to marry due to their biology.
p586
aVMarriage should be between a man and a woman
p587
aVGay couples can declare their union without resort to marriage
p588
aVGay couples should be able to take advantage of the fiscal and legal benefits of marriage
p589
aVGay marriage undermines the institution of marriage, leading to an increase in out of wedlock births and divorce rates
p590
aVMajor world religions are against gay marriages
p591
aVMarriage is about more than procreation, therefore gay couples should not be denied the right to marry due to their biology.
p592
aVMarriage should be between a man and a woman
p593
aVGay couples can declare their union without resort to marriage
p594
aVGay couples should be able to take advantage of the fiscal and legal benefits of marriage
p595
aVGay marriage undermines the institution of marriage, leading to an increase in out of wedlock births and divorce rates
p596
aVMajor world religions are against gay marriages
p597
aVMarriage is about more than procreation, therefore gay couples should not be denied the right to marry due to their biology.
p598
aVMarriage should be between a man and a woman
p599
aVGay couples can declare their union without resort to marriage
p600
aVGay couples should be able to take advantage of the fiscal and legal benefits of marriage
p601
aVGay marriage undermines the institution of marriage, leading to an increase in out of wedlock births and divorce rates
p602
aVMajor world religions are against gay marriages
p603
aVMarriage is about more than procreation, therefore gay couples should not be denied the right to marry due to their biology.
p604
aVMarriage should be between a man and a woman
p605
aVGay couples can declare their union without resort to marriage
p606
aVGay couples should be able to take advantage of the fiscal and legal benefits of marriage
p607
aVGay marriage undermines the institution of marriage, leading to an increase in out of wedlock births and divorce rates
p608
aVIt is discriminatory to refuse gay couples the right to marry
p609
aVMajor world religions are against gay marriages
p610
aVMarriage is about more than procreation, therefore gay couples should not be denied the right to marry due to their biology.
p611
aVMarriage should be between a man and a woman
p612
aVGay couples can declare their union without resort to marriage
p613
aVGay couples should be able to take advantage of the fiscal and legal benefits of marriage
p614
aVGay marriage undermines the institution of marriage, leading to an increase in out of wedlock births and divorce rates
p615
aVIt is discriminatory to refuse gay couples the right to marry
p616
aVMajor world religions are against gay marriages
p617
aVMarriage is about more than procreation, therefore gay couples should not be denied the right to marry due to their biology.
p618
aVMarriage should be between a man and a woman
p619
aVGay couples can declare their union without resort to marriage
p620
aVGay couples should be able to take advantage of the fiscal and legal benefits of marriage
p621
aVGay marriage undermines the institution of marriage, leading to an increase in out of wedlock births and divorce rates
p622
aVIt is discriminatory to refuse gay couples the right to marry
p623
aVMajor world religions are against gay marriages
p624
aVMarriage is about more than procreation, therefore gay couples should not be denied the right to marry due to their biology.
p625
aVMarriage should be between a man and a woman
p626
aVGay couples can declare their union without resort to marriage
p627
aVGay couples should be able to take advantage of the fiscal and legal benefits of marriage
p628
aVGay marriage undermines the institution of marriage, leading to an increase in out of wedlock births and divorce rates
p629
aVIt is discriminatory to refuse gay couples the right to marry
p630
aVMajor world religions are against gay marriages
p631
aVMarriage is about more than procreation, therefore gay couples should not be denied the right to marry due to their biology.
p632
aVMarriage should be between a man and a woman
p633
aVGay couples can declare their union without resort to marriage
p634
aVGay couples should be able to take advantage of the fiscal and legal benefits of marriage
p635
aVGay marriage undermines the institution of marriage, leading to an increase in out of wedlock births and divorce rates
p636
aVIt is discriminatory to refuse gay couples the right to marry
p637
aVMarriage is about more than procreation, therefore gay couples should not be denied the right to marry due to their biology.
p638
aVMarriage should be between a man and a woman
p639
aVGay couples can declare their union without resort to marriage
p640
aVGay couples should be able to take advantage of the fiscal and legal benefits of marriage
p641
aVGay marriage undermines the institution of marriage, leading to an increase in out of wedlock births and divorce rates
p642
aVIt is discriminatory to refuse gay couples the right to marry
p643
aVMajor world religions are against gay marriages
p644
aVMarriage is about more than procreation, therefore gay couples should not be denied the right to marry due to their biology.
p645
aVMarriage should be between a man and a woman
p646
aVGay couples can declare their union without resort to marriage
p647
aVGay couples should be able to take advantage of the fiscal and legal benefits of marriage
p648
aVGay marriage undermines the institution of marriage, leading to an increase in out of wedlock births and divorce rates
p649
aVIt is discriminatory to refuse gay couples the right to marry
p650
aVMajor world religions are against gay marriages
p651
aVMarriage is about more than procreation, therefore gay couples should not be denied the right to marry due to their biology.
p652
aVMarriage should be between a man and a woman
p653
aVGay couples can declare their union without resort to marriage
p654
aVGay couples should be able to take advantage of the fiscal and legal benefits of marriage
p655
aVGay marriage undermines the institution of marriage, leading to an increase in out of wedlock births and divorce rates
p656
aVIt is discriminatory to refuse gay couples the right to marry
p657
aVMajor world religions are against gay marriages
p658
aVMarriage is about more than procreation, therefore gay couples should not be denied the right to marry due to their biology.
p659
aVMarriage should be between a man and a woman
p660
aVGay couples can declare their union without resort to marriage
p661
aVGay couples should be able to take advantage of the fiscal and legal benefits of marriage
p662
aVGay marriage undermines the institution of marriage, leading to an increase in out of wedlock births and divorce rates
p663
aVIt is discriminatory to refuse gay couples the right to marry
p664
aVMajor world religions are against gay marriages
p665
aVMarriage is about more than procreation, therefore gay couples should not be denied the right to marry due to their biology.
p666
aVMarriage should be between a man and a woman
p667
aVGay couples can declare their union without resort to marriage
p668
aVGay couples should be able to take advantage of the fiscal and legal benefits of marriage
p669
aVGay marriage undermines the institution of marriage, leading to an increase in out of wedlock births and divorce rates
p670
aVIt is discriminatory to refuse gay couples the right to marry
p671
aVMajor world religions are against gay marriages
p672
aVMarriage is about more than procreation, therefore gay couples should not be denied the right to marry due to their biology.
p673
aVMarriage should be between a man and a woman
p674
aVGay couples should be able to take advantage of the fiscal and legal benefits of marriage
p675
aVGay marriage undermines the institution of marriage, leading to an increase in out of wedlock births and divorce rates
p676
aVIt is discriminatory to refuse gay couples the right to marry
p677
aVMarriage is about more than procreation, therefore gay couples should not be denied the right to marry due to their biology.
p678
aVMarriage should be between a man and a woman
p679
aVGay couples can declare their union without resort to marriage
p680
aVGay couples should be able to take advantage of the fiscal and legal benefits of marriage
p681
aVGay marriage undermines the institution of marriage, leading to an increase in out of wedlock births and divorce rates
p682
aVIt is discriminatory to refuse gay couples the right to marry
p683
aVMajor world religions are against gay marriages
p684
aVMarriage is about more than procreation, therefore gay couples should not be denied the right to marry due to their biology.
p685
aVMarriage should be between a man and a woman
p686
aVGay couples can declare their union without resort to marriage
p687
aVGay couples should be able to take advantage of the fiscal and legal benefits of marriage
p688
aVGay marriage undermines the institution of marriage, leading to an increase in out of wedlock births and divorce rates
p689
aVIt is discriminatory to refuse gay couples the right to marry
p690
aVMajor world religions are against gay marriages
p691
aVMarriage is about more than procreation, therefore gay couples should not be denied the right to marry due to their biology.
p692
aVMarriage should be between a man and a woman
p693
aVGay couples can declare their union without resort to marriage
p694
aVGay couples should be able to take advantage of the fiscal and legal benefits of marriage
p695
aVGay marriage undermines the institution of marriage, leading to an increase in out of wedlock births and divorce rates
p696
aVIt is discriminatory to refuse gay couples the right to marry
p697
aVMajor world religions are against gay marriages
p698
aVMarriage is about more than procreation, therefore gay couples should not be denied the right to marry due to their biology.
p699
aVMarriage should be between a man and a woman
p700
aVGay couples can declare their union without resort to marriage
p701
aVGay couples should be able to take advantage of the fiscal and legal benefits of marriage
p702
aVGay marriage undermines the institution of marriage, leading to an increase in out of wedlock births and divorce rates
p703
aVIt is discriminatory to refuse gay couples the right to marry
p704
aVMajor world religions are against gay marriages
p705
aVMarriage is about more than procreation, therefore gay couples should not be denied the right to marry due to their biology.
p706
aVMarriage should be between a man and a woman
p707
aVGay couples can declare their union without resort to marriage
p708
aVGay couples should be able to take advantage of the fiscal and legal benefits of marriage
p709
aVGay marriage undermines the institution of marriage, leading to an increase in out of wedlock births and divorce rates
p710
aVIt is discriminatory to refuse gay couples the right to marry
p711
aVMajor world religions are against gay marriages
p712
aVMarriage is about more than procreation, therefore gay couples should not be denied the right to marry due to their biology.
p713
aVMarriage should be between a man and a woman
p714
aVGay couples can declare their union without resort to marriage
p715
aVGay couples should be able to take advantage of the fiscal and legal benefits of marriage
p716
aVGay marriage undermines the institution of marriage, leading to an increase in out of wedlock births and divorce rates
p717
aVIt is discriminatory to refuse gay couples the right to marry
p718
aVMajor world religions are against gay marriages
p719
aVMarriage is about more than procreation, therefore gay couples should not be denied the right to marry due to their biology.
p720
aVMarriage should be between a man and a woman
p721
aVGay couples can declare their union without resort to marriage
p722
aVGay couples should be able to take advantage of the fiscal and legal benefits of marriage
p723
aVGay marriage undermines the institution of marriage, leading to an increase in out of wedlock births and divorce rates
p724
aVIt is discriminatory to refuse gay couples the right to marry
p725
aVMarriage is about more than procreation, therefore gay couples should not be denied the right to marry due to their biology.
p726
aVMarriage should be between a man and a woman
p727
aVGay couples can declare their union without resort to marriage
p728
aVGay couples should be able to take advantage of the fiscal and legal benefits of marriage
p729
aVGay marriage undermines the institution of marriage, leading to an increase in out of wedlock births and divorce rates
p730
aVIt is discriminatory to refuse gay couples the right to marry
p731
aVMarriage is about more than procreation, therefore gay couples should not be denied the right to marry due to their biology.
p732
aVMarriage should be between a man and a woman
p733
aVGay couples can declare their union without resort to marriage
p734
aVGay couples should be able to take advantage of the fiscal and legal benefits of marriage
p735
aVGay marriage undermines the institution of marriage, leading to an increase in out of wedlock births and divorce rates
p736
aVIt is discriminatory to refuse gay couples the right to marry
p737
aVMajor world religions are against gay marriages
p738
aVMarriage is about more than procreation, therefore gay couples should not be denied the right to marry due to their biology.
p739
aVMarriage should be between a man and a woman
p740
aVGay couples should be able to take advantage of the fiscal and legal benefits of marriage
p741
aVGay marriage undermines the institution of marriage, leading to an increase in out of wedlock births and divorce rates
p742
aVMajor world religions are against gay marriages
p743
aVMarriage is about more than procreation, therefore gay couples should not be denied the right to marry due to their biology.
p744
aVMarriage should be between a man and a woman
p745
aVGay couples can declare their union without resort to marriage
p746
aVGay couples should be able to take advantage of the fiscal and legal benefits of marriage
p747
aVGay marriage undermines the institution of marriage, leading to an increase in out of wedlock births and divorce rates
p748
aVIt is discriminatory to refuse gay couples the right to marry
p749
aVMajor world religions are against gay marriages
p750
aVMarriage is about more than procreation, therefore gay couples should not be denied the right to marry due to their biology.
p751
aVMarriage should be between a man and a woman
p752
aVGay couples can declare their union without resort to marriage
p753
aVGay couples should be able to take advantage of the fiscal and legal benefits of marriage
p754
aVGay marriage undermines the institution of marriage, leading to an increase in out of wedlock births and divorce rates
p755
aVIt is discriminatory to refuse gay couples the right to marry
p756
aVMajor world religions are against gay marriages
p757
aVMarriage is about more than procreation, therefore gay couples should not be denied the right to marry due to their biology.
p758
aVMarriage should be between a man and a woman
p759
aVGay couples can declare their union without resort to marriage
p760
aVGay couples should be able to take advantage of the fiscal and legal benefits of marriage
p761
aVGay marriage undermines the institution of marriage, leading to an increase in out of wedlock births and divorce rates
p762
aVIt is discriminatory to refuse gay couples the right to marry
p763
aVMajor world religions are against gay marriages
p764
aVMarriage is about more than procreation, therefore gay couples should not be denied the right to marry due to their biology.
p765
aVMarriage should be between a man and a woman
p766
aVGay couples can declare their union without resort to marriage
p767
aVGay couples should be able to take advantage of the fiscal and legal benefits of marriage
p768
aVGay marriage undermines the institution of marriage, leading to an increase in out of wedlock births and divorce rates
p769
aVIt is discriminatory to refuse gay couples the right to marry
p770
aVMarriage is about more than procreation, therefore gay couples should not be denied the right to marry due to their biology.
p771
aVMarriage should be between a man and a woman
p772
aVGay couples can declare their union without resort to marriage
p773
aVGay couples should be able to take advantage of the fiscal and legal benefits of marriage
p774
aVGay marriage undermines the institution of marriage, leading to an increase in out of wedlock births and divorce rates
p775
aVMajor world religions are against gay marriages
p776
aVMarriage is about more than procreation, therefore gay couples should not be denied the right to marry due to their biology.
p777
aVMarriage should be between a man and a woman
p778
aVGay couples can declare their union without resort to marriage
p779
aVGay couples should be able to take advantage of the fiscal and legal benefits of marriage
p780
aVGay marriage undermines the institution of marriage, leading to an increase in out of wedlock births and divorce rates
p781
aVIt is discriminatory to refuse gay couples the right to marry
p782
aVMajor world religions are against gay marriages
p783
aVMarriage is about more than procreation, therefore gay couples should not be denied the right to marry due to their biology.
p784
aVMarriage should be between a man and a woman
p785
aVGay couples can declare their union without resort to marriage
p786
aVGay couples should be able to take advantage of the fiscal and legal benefits of marriage
p787
aVGay marriage undermines the institution of marriage, leading to an increase in out of wedlock births and divorce rates
p788
aVIt is discriminatory to refuse gay couples the right to marry
p789
aVMajor world religions are against gay marriages
p790
aVMarriage is about more than procreation, therefore gay couples should not be denied the right to marry due to their biology.
p791
aVMarriage should be between a man and a woman
p792
aVGay couples can declare their union without resort to marriage
p793
aVGay couples should be able to take advantage of the fiscal and legal benefits of marriage
p794
aVGay marriage undermines the institution of marriage, leading to an increase in out of wedlock births and divorce rates
p795
aVIt is discriminatory to refuse gay couples the right to marry
p796
aVMarriage is about more than procreation, therefore gay couples should not be denied the right to marry due to their biology.
p797
aVMarriage should be between a man and a woman
p798
aVGay couples can declare their union without resort to marriage
p799
aVGay couples should be able to take advantage of the fiscal and legal benefits of marriage
p800
aVGay marriage undermines the institution of marriage, leading to an increase in out of wedlock births and divorce rates
p801
aVIt is discriminatory to refuse gay couples the right to marry
p802
aVMajor world religions are against gay marriages
p803
aVMarriage is about more than procreation, therefore gay couples should not be denied the right to marry due to their biology.
p804
aVMarriage should be between a man and a woman
p805
aVGay couples can declare their union without resort to marriage
p806
aVGay couples should be able to take advantage of the fiscal and legal benefits of marriage
p807
aVGay marriage undermines the institution of marriage, leading to an increase in out of wedlock births and divorce rates
p808
aVMajor world religions are against gay marriages
p809
aVMarriage is about more than procreation, therefore gay couples should not be denied the right to marry due to their biology.
p810
aVMarriage should be between a man and a woman
p811
aVGay couples can declare their union without resort to marriage
p812
aVGay couples should be able to take advantage of the fiscal and legal benefits of marriage
p813
aVGay marriage undermines the institution of marriage, leading to an increase in out of wedlock births and divorce rates
p814
aVIt is discriminatory to refuse gay couples the right to marry
p815
aVMarriage is about more than procreation, therefore gay couples should not be denied the right to marry due to their biology.
p816
aVMarriage should be between a man and a woman
p817
aVGay couples can declare their union without resort to marriage
p818
aVGay couples should be able to take advantage of the fiscal and legal benefits of marriage
p819
aVGay marriage undermines the institution of marriage, leading to an increase in out of wedlock births and divorce rates
p820
aVIt is discriminatory to refuse gay couples the right to marry
p821
aVMajor world religions are against gay marriages
p822
aVMarriage is about more than procreation, therefore gay couples should not be denied the right to marry due to their biology.
p823
aVMarriage should be between a man and a woman
p824
aVGay couples can declare their union without resort to marriage
p825
aVGay couples should be able to take advantage of the fiscal and legal benefits of marriage
p826
aVGay marriage undermines the institution of marriage, leading to an increase in out of wedlock births and divorce rates
p827
aVMajor world religions are against gay marriages
p828
aVMarriage is about more than procreation, therefore gay couples should not be denied the right to marry due to their biology.
p829
aVMarriage should be between a man and a woman
p830
aVGay couples can declare their union without resort to marriage
p831
aVGay couples should be able to take advantage of the fiscal and legal benefits of marriage
p832
aVGay marriage undermines the institution of marriage, leading to an increase in out of wedlock births and divorce rates
p833
aVIt is discriminatory to refuse gay couples the right to marry
p834
aVMajor world religions are against gay marriages
p835
aVMarriage is about more than procreation, therefore gay couples should not be denied the right to marry due to their biology.
p836
aVGay couples can declare their union without resort to marriage
p837
aVGay couples should be able to take advantage of the fiscal and legal benefits of marriage
p838
aVGay marriage undermines the institution of marriage, leading to an increase in out of wedlock births and divorce rates
p839
aVIt is discriminatory to refuse gay couples the right to marry
p840
aVMajor world religions are against gay marriages
p841
aVMarriage is about more than procreation, therefore gay couples should not be denied the right to marry due to their biology.
p842
aVMarriage should be between a man and a woman
p843
aVGay couples can declare their union without resort to marriage
p844
aVGay couples should be able to take advantage of the fiscal and legal benefits of marriage
p845
aVGay marriage undermines the institution of marriage, leading to an increase in out of wedlock births and divorce rates
p846
aVMajor world religions are against gay marriages
p847
aVMarriage is about more than procreation, therefore gay couples should not be denied the right to marry due to their biology.
p848
aVGay couples can declare their union without resort to marriage
p849
aVGay couples should be able to take advantage of the fiscal and legal benefits of marriage
p850
aVGay marriage undermines the institution of marriage, leading to an increase in out of wedlock births and divorce rates
p851
aVMajor world religions are against gay marriages
p852
aVMarriage is about more than procreation, therefore gay couples should not be denied the right to marry due to their biology.
p853
aVMarriage should be between a man and a woman
p854
aVGay couples can declare their union without resort to marriage
p855
aVGay couples should be able to take advantage of the fiscal and legal benefits of marriage
p856
aVGay marriage undermines the institution of marriage, leading to an increase in out of wedlock births and divorce rates
p857
aVIt is discriminatory to refuse gay couples the right to marry
p858
aVMajor world religions are against gay marriages
p859
aVMarriage is about more than procreation, therefore gay couples should not be denied the right to marry due to their biology.
p860
aVMarriage should be between a man and a woman
p861
aVGay couples can declare their union without resort to marriage
p862
aVGay couples should be able to take advantage of the fiscal and legal benefits of marriage
p863
aVGay marriage undermines the institution of marriage, leading to an increase in out of wedlock births and divorce rates
p864
aVMajor world religions are against gay marriages
p865
aVMarriage is about more than procreation, therefore gay couples should not be denied the right to marry due to their biology.
p866
aVMarriage should be between a man and a woman
p867
aVGay couples can declare their union without resort to marriage
p868
aVGay couples should be able to take advantage of the fiscal and legal benefits of marriage
p869
aVGay marriage undermines the institution of marriage, leading to an increase in out of wedlock births and divorce rates
p870
aVMajor world religions are against gay marriages
p871
aVMarriage is about more than procreation, therefore gay couples should not be denied the right to marry due to their biology.
p872
aVMarriage should be between a man and a woman
p873
aVGay couples can declare their union without resort to marriage
p874
aVGay couples should be able to take advantage of the fiscal and legal benefits of marriage
p875
aVGay marriage undermines the institution of marriage, leading to an increase in out of wedlock births and divorce rates
p876
aVIt is discriminatory to refuse gay couples the right to marry
p877
aVMarriage is about more than procreation, therefore gay couples should not be denied the right to marry due to their biology.
p878
aVMarriage should be between a man and a woman
p879
aVGay couples can declare their union without resort to marriage
p880
aVGay couples should be able to take advantage of the fiscal and legal benefits of marriage
p881
aVGay marriage undermines the institution of marriage, leading to an increase in out of wedlock births and divorce rates
p882
aVIt is discriminatory to refuse gay couples the right to marry
p883
aVMarriage is about more than procreation, therefore gay couples should not be denied the right to marry due to their biology.
p884
aVMarriage should be between a man and a woman
p885
aVGay couples can declare their union without resort to marriage
p886
aVGay couples should be able to take advantage of the fiscal and legal benefits of marriage
p887
aVGay marriage undermines the institution of marriage, leading to an increase in out of wedlock births and divorce rates
p888
aVIt is discriminatory to refuse gay couples the right to marry
p889
aVMajor world religions are against gay marriages
p890
aVMarriage is about more than procreation, therefore gay couples should not be denied the right to marry due to their biology.
p891
aVMarriage should be between a man and a woman
p892
aVGay couples can declare their union without resort to marriage
p893
aVGay couples should be able to take advantage of the fiscal and legal benefits of marriage
p894
aVGay marriage undermines the institution of marriage, leading to an increase in out of wedlock births and divorce rates
p895
aVMajor world religions are against gay marriages
p896
aVMarriage is about more than procreation, therefore gay couples should not be denied the right to marry due to their biology.
p897
aVMarriage should be between a man and a woman
p898
aVGay couples can declare their union without resort to marriage
p899
aVGay couples should be able to take advantage of the fiscal and legal benefits of marriage
p900
aVGay marriage undermines the institution of marriage, leading to an increase in out of wedlock births and divorce rates
p901
aVIt is discriminatory to refuse gay couples the right to marry
p902
aVMajor world religions are against gay marriages
p903
aVMarriage is about more than procreation, therefore gay couples should not be denied the right to marry due to their biology.
p904
aVMarriage should be between a man and a woman
p905
aVGay couples can declare their union without resort to marriage
p906
aVGay couples should be able to take advantage of the fiscal and legal benefits of marriage
p907
aVGay marriage undermines the institution of marriage, leading to an increase in out of wedlock births and divorce rates
p908
aVMajor world religions are against gay marriages
p909
aVMarriage is about more than procreation, therefore gay couples should not be denied the right to marry due to their biology.
p910
aVMarriage should be between a man and a woman
p911
aVGay couples can declare their union without resort to marriage
p912
aVGay couples should be able to take advantage of the fiscal and legal benefits of marriage
p913
aVGay marriage undermines the institution of marriage, leading to an increase in out of wedlock births and divorce rates
p914
aVIt is discriminatory to refuse gay couples the right to marry
p915
aVMajor world religions are against gay marriages
p916
aVMarriage is about more than procreation, therefore gay couples should not be denied the right to marry due to their biology.
p917
aVMarriage should be between a man and a woman
p918
aVGay couples can declare their union without resort to marriage
p919
aVGay couples should be able to take advantage of the fiscal and legal benefits of marriage
p920
aVGay marriage undermines the institution of marriage, leading to an increase in out of wedlock births and divorce rates
p921
aVIt is discriminatory to refuse gay couples the right to marry
p922
aVMajor world religions are against gay marriages
p923
aVMarriage is about more than procreation, therefore gay couples should not be denied the right to marry due to their biology.
p924
aVMarriage should be between a man and a woman
p925
aVGay couples can declare their union without resort to marriage
p926
aVGay couples should be able to take advantage of the fiscal and legal benefits of marriage
p927
aVGay marriage undermines the institution of marriage, leading to an increase in out of wedlock births and divorce rates
p928
aVIt is discriminatory to refuse gay couples the right to marry
p929
aVMajor world religions are against gay marriages
p930
aVMarriage is about more than procreation, therefore gay couples should not be denied the right to marry due to their biology.
p931
aVMarriage should be between a man and a woman
p932
aVGay couples can declare their union without resort to marriage
p933
aVGay couples should be able to take advantage of the fiscal and legal benefits of marriage
p934
aVGay marriage undermines the institution of marriage, leading to an increase in out of wedlock births and divorce rates
p935
aVIt is discriminatory to refuse gay couples the right to marry
p936
aVMarriage is about more than procreation, therefore gay couples should not be denied the right to marry due to their biology.
p937
aVMarriage should be between a man and a woman
p938
aVGay couples can declare their union without resort to marriage
p939
aVGay couples should be able to take advantage of the fiscal and legal benefits of marriage
p940
aVGay marriage undermines the institution of marriage, leading to an increase in out of wedlock births and divorce rates
p941
aVIt is discriminatory to refuse gay couples the right to marry
p942
aVMajor world religions are against gay marriages
p943
aVMarriage is about more than procreation, therefore gay couples should not be denied the right to marry due to their biology.
p944
aVGay couples can declare their union without resort to marriage
p945
aVGay couples should be able to take advantage of the fiscal and legal benefits of marriage
p946
aVGay marriage undermines the institution of marriage, leading to an increase in out of wedlock births and divorce rates
p947
aVIt is discriminatory to refuse gay couples the right to marry
p948
aVMajor world religions are against gay marriages
p949
aVMarriage is about more than procreation, therefore gay couples should not be denied the right to marry due to their biology.
p950
aVMarriage should be between a man and a woman
p951
aVGay couples can declare their union without resort to marriage
p952
aVGay marriage undermines the institution of marriage, leading to an increase in out of wedlock births and divorce rates
p953
aVIt is discriminatory to refuse gay couples the right to marry
p954
aVMarriage is about more than procreation, therefore gay couples should not be denied the right to marry due to their biology.
p955
aVMarriage should be between a man and a woman
p956
aVGay couples can declare their union without resort to marriage
p957
aVGay couples should be able to take advantage of the fiscal and legal benefits of marriage
p958
aVGay marriage undermines the institution of marriage, leading to an increase in out of wedlock births and divorce rates
p959
aVIt is discriminatory to refuse gay couples the right to marry
p960
aVMajor world religions are against gay marriages
p961
aVMarriage should be between a man and a woman
p962
aVGay couples can declare their union without resort to marriage
p963
aVGay couples should be able to take advantage of the fiscal and legal benefits of marriage
p964
aVGay marriage undermines the institution of marriage, leading to an increase in out of wedlock births and divorce rates
p965
aVIt is discriminatory to refuse gay couples the right to marry
p966
aVMarriage is about more than procreation, therefore gay couples should not be denied the right to marry due to their biology.
p967
aVMarriage should be between a man and a woman
p968
aVGay couples can declare their union without resort to marriage
p969
aVGay couples should be able to take advantage of the fiscal and legal benefits of marriage
p970
aVGay marriage undermines the institution of marriage, leading to an increase in out of wedlock births and divorce rates
p971
aVMajor world religions are against gay marriages
p972
aVMarriage is about more than procreation, therefore gay couples should not be denied the right to marry due to their biology.
p973
aVGay couples can declare their union without resort to marriage
p974
aVGay couples should be able to take advantage of the fiscal and legal benefits of marriage
p975
aVGay marriage undermines the institution of marriage, leading to an increase in out of wedlock births and divorce rates
p976
aVIt is discriminatory to refuse gay couples the right to marry
p977
aVMajor world religions are against gay marriages
p978
aVMarriage is about more than procreation, therefore gay couples should not be denied the right to marry due to their biology.
p979
aVMarriage should be between a man and a woman
p980
aVGay couples can declare their union without resort to marriage
p981
aVGay couples should be able to take advantage of the fiscal and legal benefits of marriage
p982
aVGay marriage undermines the institution of marriage, leading to an increase in out of wedlock births and divorce rates
p983
aVIt is discriminatory to refuse gay couples the right to marry
p984
aVMarriage is about more than procreation, therefore gay couples should not be denied the right to marry due to their biology.
p985
aVMarriage should be between a man and a woman
p986
aVGay couples can declare their union without resort to marriage
p987
aVGay couples should be able to take advantage of the fiscal and legal benefits of marriage
p988
aVGay marriage undermines the institution of marriage, leading to an increase in out of wedlock births and divorce rates
p989
aVIt is discriminatory to refuse gay couples the right to marry
p990
aVMajor world religions are against gay marriages
p991
aVMarriage is about more than procreation, therefore gay couples should not be denied the right to marry due to their biology.
p992
aVMarriage should be between a man and a woman
p993
aVGay couples can declare their union without resort to marriage
p994
aVGay couples should be able to take advantage of the fiscal and legal benefits of marriage
p995
aVGay marriage undermines the institution of marriage, leading to an increase in out of wedlock births and divorce rates
p996
aVIt is discriminatory to refuse gay couples the right to marry
p997
aVMajor world religions are against gay marriages
p998
aVMarriage is about more than procreation, therefore gay couples should not be denied the right to marry due to their biology.
p999
aVGay couples can declare their union without resort to marriage
p1000
aVGay couples should be able to take advantage of the fiscal and legal benefits of marriage
p1001
aVGay marriage undermines the institution of marriage, leading to an increase in out of wedlock births and divorce rates
p1002
aVIt is discriminatory to refuse gay couples the right to marry
p1003
aVMarriage is about more than procreation, therefore gay couples should not be denied the right to marry due to their biology.
p1004
aVMarriage should be between a man and a woman
p1005
aVGay couples can declare their union without resort to marriage
p1006
aVGay couples should be able to take advantage of the fiscal and legal benefits of marriage
p1007
aVGay marriage undermines the institution of marriage, leading to an increase in out of wedlock births and divorce rates
p1008
aVIt is discriminatory to refuse gay couples the right to marry
p1009
aVMajor world religions are against gay marriages
p1010
aVMarriage is about more than procreation, therefore gay couples should not be denied the right to marry due to their biology.
p1011
aVMarriage should be between a man and a woman
p1012
aVGay couples can declare their union without resort to marriage
p1013
aVGay couples should be able to take advantage of the fiscal and legal benefits of marriage
p1014
aVGay marriage undermines the institution of marriage, leading to an increase in out of wedlock births and divorce rates
p1015
aVIt is discriminatory to refuse gay couples the right to marry
p1016
aVMajor world religions are against gay marriages
p1017
aVMarriage is about more than procreation, therefore gay couples should not be denied the right to marry due to their biology.
p1018
aVMarriage should be between a man and a woman
p1019
aVGay couples can declare their union without resort to marriage
p1020
aVGay couples should be able to take advantage of the fiscal and legal benefits of marriage
p1021
aVGay marriage undermines the institution of marriage, leading to an increase in out of wedlock births and divorce rates
p1022
aVIt is discriminatory to refuse gay couples the right to marry
p1023
aVMajor world religions are against gay marriages
p1024
aVMarriage is about more than procreation, therefore gay couples should not be denied the right to marry due to their biology.
p1025
aVMarriage should be between a man and a woman
p1026
aVGay couples can declare their union without resort to marriage
p1027
aVGay couples should be able to take advantage of the fiscal and legal benefits of marriage
p1028
aVGay marriage undermines the institution of marriage, leading to an increase in out of wedlock births and divorce rates
p1029
aVIt is discriminatory to refuse gay couples the right to marry
p1030
aVMarriage is about more than procreation, therefore gay couples should not be denied the right to marry due to their biology.
p1031
aVGay couples can declare their union without resort to marriage
p1032
aVGay couples should be able to take advantage of the fiscal and legal benefits of marriage
p1033
aVGay marriage undermines the institution of marriage, leading to an increase in out of wedlock births and divorce rates
p1034
aVMajor world religions are against gay marriages
p1035
aVMarriage is about more than procreation, therefore gay couples should not be denied the right to marry due to their biology.
p1036
aVMarriage should be between a man and a woman
p1037
aVGay couples can declare their union without resort to marriage
p1038
aVGay couples should be able to take advantage of the fiscal and legal benefits of marriage
p1039
aVGay marriage undermines the institution of marriage, leading to an increase in out of wedlock births and divorce rates
p1040
aVIt is discriminatory to refuse gay couples the right to marry
p1041
aVMajor world religions are against gay marriages
p1042
aVMarriage is about more than procreation, therefore gay couples should not be denied the right to marry due to their biology.
p1043
aVMarriage should be between a man and a woman
p1044
aVGay couples can declare their union without resort to marriage
p1045
aVGay couples should be able to take advantage of the fiscal and legal benefits of marriage
p1046
aVGay marriage undermines the institution of marriage, leading to an increase in out of wedlock births and divorce rates
p1047
aVIt is discriminatory to refuse gay couples the right to marry
p1048
aVGay couples can declare their union without resort to marriage
p1049
aVGay couples should be able to take advantage of the fiscal and legal benefits of marriage
p1050
aVGay marriage undermines the institution of marriage, leading to an increase in out of wedlock births and divorce rates
p1051
aVIt is discriminatory to refuse gay couples the right to marry
p1052
aVMajor world religions are against gay marriages
p1053
aVMarriage is about more than procreation, therefore gay couples should not be denied the right to marry due to their biology.
p1054
aVMarriage should be between a man and a woman
p1055
aVGay couples can declare their union without resort to marriage
p1056
aVGay couples should be able to take advantage of the fiscal and legal benefits of marriage
p1057
aVIt is discriminatory to refuse gay couples the right to marry
p1058
aVMajor world religions are against gay marriages
p1059
aVMarriage is about more than procreation, therefore gay couples should not be denied the right to marry due to their biology.
p1060
aVMarriage should be between a man and a woman
p1061
aVGay couples can declare their union without resort to marriage
p1062
aVGay couples should be able to take advantage of the fiscal and legal benefits of marriage
p1063
aVGay marriage undermines the institution of marriage, leading to an increase in out of wedlock births and divorce rates
p1064
aVIt is discriminatory to refuse gay couples the right to marry
p1065
aVMajor world religions are against gay marriages
p1066
aVMarriage is about more than procreation, therefore gay couples should not be denied the right to marry due to their biology.
p1067
aVGay couples can declare their union without resort to marriage
p1068
aVGay couples should be able to take advantage of the fiscal and legal benefits of marriage
p1069
aVGay marriage undermines the institution of marriage, leading to an increase in out of wedlock births and divorce rates
p1070
aVIt is discriminatory to refuse gay couples the right to marry
p1071
aVMajor world religions are against gay marriages
p1072
aVMarriage is about more than procreation, therefore gay couples should not be denied the right to marry due to their biology.
p1073
aVMarriage should be between a man and a woman
p1074
aVGay couples can declare their union without resort to marriage
p1075
aVGay couples should be able to take advantage of the fiscal and legal benefits of marriage
p1076
aVGay marriage undermines the institution of marriage, leading to an increase in out of wedlock births and divorce rates
p1077
aVIt is discriminatory to refuse gay couples the right to marry
p1078
aVMajor world religions are against gay marriages
p1079
aVMarriage is about more than procreation, therefore gay couples should not be denied the right to marry due to their biology.
p1080
aVMarriage should be between a man and a woman
p1081
aVGay couples can declare their union without resort to marriage
p1082
aVGay couples should be able to take advantage of the fiscal and legal benefits of marriage
p1083
aVGay marriage undermines the institution of marriage, leading to an increase in out of wedlock births and divorce rates
p1084
aVIt is discriminatory to refuse gay couples the right to marry
p1085
aVMarriage is about more than procreation, therefore gay couples should not be denied the right to marry due to their biology.
p1086
aVMarriage should be between a man and a woman
p1087
aVGay couples can declare their union without resort to marriage
p1088
aVGay couples should be able to take advantage of the fiscal and legal benefits of marriage
p1089
aVGay marriage undermines the institution of marriage, leading to an increase in out of wedlock births and divorce rates
p1090
aVIt is discriminatory to refuse gay couples the right to marry
p1091
aVMarriage is about more than procreation, therefore gay couples should not be denied the right to marry due to their biology.
p1092
aVGay couples can declare their union without resort to marriage
p1093
aVGay couples should be able to take advantage of the fiscal and legal benefits of marriage
p1094
aVGay marriage undermines the institution of marriage, leading to an increase in out of wedlock births and divorce rates
p1095
aVIt is discriminatory to refuse gay couples the right to marry
p1096
aVMajor world religions are against gay marriages
p1097
aVMarriage is about more than procreation, therefore gay couples should not be denied the right to marry due to their biology.
p1098
aVMarriage should be between a man and a woman
p1099
aVGay couples can declare their union without resort to marriage
p1100
aVGay couples should be able to take advantage of the fiscal and legal benefits of marriage
p1101
aVGay marriage undermines the institution of marriage, leading to an increase in out of wedlock births and divorce rates
p1102
aVMarriage is about more than procreation, therefore gay couples should not be denied the right to marry due to their biology.
p1103
aVMarriage should be between a man and a woman
p1104
aVGay couples can declare their union without resort to marriage
p1105
aVGay couples should be able to take advantage of the fiscal and legal benefits of marriage
p1106
aVGay marriage undermines the institution of marriage, leading to an increase in out of wedlock births and divorce rates
p1107
aVIt is discriminatory to refuse gay couples the right to marry
p1108
aVMajor world religions are against gay marriages
p1109
aVMarriage is about more than procreation, therefore gay couples should not be denied the right to marry due to their biology.
p1110
aVMarriage should be between a man and a woman
p1111
aVGay couples should be able to take advantage of the fiscal and legal benefits of marriage
p1112
aVGay marriage undermines the institution of marriage, leading to an increase in out of wedlock births and divorce rates
p1113
aVIt is discriminatory to refuse gay couples the right to marry
p1114
aVMajor world religions are against gay marriages
p1115
aVMarriage is about more than procreation, therefore gay couples should not be denied the right to marry due to their biology.
p1116
aVMarriage should be between a man and a woman
p1117
aVGay couples can declare their union without resort to marriage
p1118
aVGay couples should be able to take advantage of the fiscal and legal benefits of marriage
p1119
aVGay marriage undermines the institution of marriage, leading to an increase in out of wedlock births and divorce rates
p1120
aVIt is discriminatory to refuse gay couples the right to marry
p1121
aVMajor world religions are against gay marriages
p1122
aVMarriage is about more than procreation, therefore gay couples should not be denied the right to marry due to their biology.
p1123
aVMarriage should be between a man and a woman
p1124
aVGay couples can declare their union without resort to marriage
p1125
aVGay couples should be able to take advantage of the fiscal and legal benefits of marriage
p1126
aVGay marriage undermines the institution of marriage, leading to an increase in out of wedlock births and divorce rates
p1127
aVIt is discriminatory to refuse gay couples the right to marry
p1128
aVMajor world religions are against gay marriages
p1129
aVMarriage is about more than procreation, therefore gay couples should not be denied the right to marry due to their biology.
p1130
aVMarriage should be between a man and a woman
p1131
aVGay couples can declare their union without resort to marriage
p1132
aVGay couples should be able to take advantage of the fiscal and legal benefits of marriage
p1133
aVGay marriage undermines the institution of marriage, leading to an increase in out of wedlock births and divorce rates
p1134
aVIt is discriminatory to refuse gay couples the right to marry
p1135
aVMajor world religions are against gay marriages
p1136
aVMarriage is about more than procreation, therefore gay couples should not be denied the right to marry due to their biology.
p1137
aVMarriage should be between a man and a woman
p1138
aVGay couples can declare their union without resort to marriage
p1139
aVGay couples should be able to take advantage of the fiscal and legal benefits of marriage
p1140
aVGay marriage undermines the institution of marriage, leading to an increase in out of wedlock births and divorce rates
p1141
aVIt is discriminatory to refuse gay couples the right to marry
p1142
aVMajor world religions are against gay marriages
p1143
aVMarriage is about more than procreation, therefore gay couples should not be denied the right to marry due to their biology.
p1144
aVMarriage should be between a man and a woman
p1145
aVGay couples can declare their union without resort to marriage
p1146
aVGay couples should be able to take advantage of the fiscal and legal benefits of marriage
p1147
aVGay marriage undermines the institution of marriage, leading to an increase in out of wedlock births and divorce rates
p1148
aVIt is discriminatory to refuse gay couples the right to marry
p1149
aVMajor world religions are against gay marriages
p1150
aVMarriage is about more than procreation, therefore gay couples should not be denied the right to marry due to their biology.
p1151
aVMarriage should be between a man and a woman
p1152
aVGay couples can declare their union without resort to marriage
p1153
aVGay couples should be able to take advantage of the fiscal and legal benefits of marriage
p1154
aVGay marriage undermines the institution of marriage, leading to an increase in out of wedlock births and divorce rates
p1155
aVIt is discriminatory to refuse gay couples the right to marry
p1156
aVMajor world religions are against gay marriages
p1157
aVMarriage is about more than procreation, therefore gay couples should not be denied the right to marry due to their biology.
p1158
aVGay couples can declare their union without resort to marriage
p1159
aVGay couples should be able to take advantage of the fiscal and legal benefits of marriage
p1160
aVGay marriage undermines the institution of marriage, leading to an increase in out of wedlock births and divorce rates
p1161
aVIt is discriminatory to refuse gay couples the right to marry
p1162
aVMajor world religions are against gay marriages
p1163
aVMarriage is about more than procreation, therefore gay couples should not be denied the right to marry due to their biology.
p1164
aVMarriage should be between a man and a woman
p1165
aVGay couples can declare their union without resort to marriage
p1166
aVGay couples should be able to take advantage of the fiscal and legal benefits of marriage
p1167
aVGay marriage undermines the institution of marriage, leading to an increase in out of wedlock births and divorce rates
p1168
aVIt is discriminatory to refuse gay couples the right to marry
p1169
aVMajor world religions are against gay marriages
p1170
aVMarriage is about more than procreation, therefore gay couples should not be denied the right to marry due to their biology.
p1171
aVMarriage should be between a man and a woman
p1172
aVGay couples can declare their union without resort to marriage
p1173
aVGay couples should be able to take advantage of the fiscal and legal benefits of marriage
p1174
aVGay marriage undermines the institution of marriage, leading to an increase in out of wedlock births and divorce rates
p1175
aVIt is discriminatory to refuse gay couples the right to marry
p1176
aVMarriage is about more than procreation, therefore gay couples should not be denied the right to marry due to their biology.
p1177
aVMarriage should be between a man and a woman
p1178
aVGay couples can declare their union without resort to marriage
p1179
aVGay couples should be able to take advantage of the fiscal and legal benefits of marriage
p1180
aVGay marriage undermines the institution of marriage, leading to an increase in out of wedlock births and divorce rates
p1181
aVMajor world religions are against gay marriages
p1182
aVMarriage is about more than procreation, therefore gay couples should not be denied the right to marry due to their biology.
p1183
aVMarriage should be between a man and a woman
p1184
aVGay couples can declare their union without resort to marriage
p1185
aVGay couples should be able to take advantage of the fiscal and legal benefits of marriage
p1186
aVGay marriage undermines the institution of marriage, leading to an increase in out of wedlock births and divorce rates
p1187
aVIt is discriminatory to refuse gay couples the right to marry
p1188
aVMajor world religions are against gay marriages
p1189
aVMarriage is about more than procreation, therefore gay couples should not be denied the right to marry due to their biology.
p1190
aVMarriage should be between a man and a woman
p1191
aVGay couples can declare their union without resort to marriage
p1192
aVGay couples should be able to take advantage of the fiscal and legal benefits of marriage
p1193
aVGay marriage undermines the institution of marriage, leading to an increase in out of wedlock births and divorce rates
p1194
aVIt is discriminatory to refuse gay couples the right to marry
p1195
aVMajor world religions are against gay marriages
p1196
aVMarriage is about more than procreation, therefore gay couples should not be denied the right to marry due to their biology.
p1197
aVMarriage should be between a man and a woman
p1198
aVGay couples can declare their union without resort to marriage
p1199
aVGay couples should be able to take advantage of the fiscal and legal benefits of marriage
p1200
aVGay marriage undermines the institution of marriage, leading to an increase in out of wedlock births and divorce rates
p1201
aVMajor world religions are against gay marriages
p1202
aVMarriage is about more than procreation, therefore gay couples should not be denied the right to marry due to their biology.
p1203
aVMarriage should be between a man and a woman
p1204
aVGay couples can declare their union without resort to marriage
p1205
aVGay couples should be able to take advantage of the fiscal and legal benefits of marriage
p1206
aVGay marriage undermines the institution of marriage, leading to an increase in out of wedlock births and divorce rates
p1207
aVIt is discriminatory to refuse gay couples the right to marry
p1208
aVMajor world religions are against gay marriages
p1209
aVMarriage is about more than procreation, therefore gay couples should not be denied the right to marry due to their biology.
p1210
aVMarriage should be between a man and a woman
p1211
aVGay couples can declare their union without resort to marriage
p1212
aVGay couples should be able to take advantage of the fiscal and legal benefits of marriage
p1213
aVGay marriage undermines the institution of marriage, leading to an increase in out of wedlock births and divorce rates
p1214
aVMajor world religions are against gay marriages
p1215
aVMarriage is about more than procreation, therefore gay couples should not be denied the right to marry due to their biology.
p1216
aVMarriage should be between a man and a woman
p1217
aVGay couples can declare their union without resort to marriage
p1218
aVGay couples should be able to take advantage of the fiscal and legal benefits of marriage
p1219
aVGay marriage undermines the institution of marriage, leading to an increase in out of wedlock births and divorce rates
p1220
aVIt is discriminatory to refuse gay couples the right to marry
p1221
aVMajor world religions are against gay marriages
p1222
aVMarriage is about more than procreation, therefore gay couples should not be denied the right to marry due to their biology.
p1223
aVMarriage should be between a man and a woman
p1224
aVGay couples can declare their union without resort to marriage
p1225
aVGay couples should be able to take advantage of the fiscal and legal benefits of marriage
p1226
aVGay marriage undermines the institution of marriage, leading to an increase in out of wedlock births and divorce rates
p1227
aVIt is discriminatory to refuse gay couples the right to marry
p1228
aVMajor world religions are against gay marriages
p1229
aVMarriage is about more than procreation, therefore gay couples should not be denied the right to marry due to their biology.
p1230
aVMarriage should be between a man and a woman
p1231
aVGay couples can declare their union without resort to marriage
p1232
aVGay couples should be able to take advantage of the fiscal and legal benefits of marriage
p1233
aVGay marriage undermines the institution of marriage, leading to an increase in out of wedlock births and divorce rates
p1234
aVMajor world religions are against gay marriages
p1235
aVMarriage is about more than procreation, therefore gay couples should not be denied the right to marry due to their biology.
p1236
aVMarriage should be between a man and a woman
p1237
aVGay couples can declare their union without resort to marriage
p1238
aVGay couples should be able to take advantage of the fiscal and legal benefits of marriage
p1239
aVGay marriage undermines the institution of marriage, leading to an increase in out of wedlock births and divorce rates
p1240
aVIt is discriminatory to refuse gay couples the right to marry
p1241
aVMarriage is about more than procreation, therefore gay couples should not be denied the right to marry due to their biology.
p1242
aVMarriage should be between a man and a woman
p1243
aVGay couples can declare their union without resort to marriage
p1244
aVGay couples should be able to take advantage of the fiscal and legal benefits of marriage
p1245
aVGay marriage undermines the institution of marriage, leading to an increase in out of wedlock births and divorce rates
p1246
aVIt is discriminatory to refuse gay couples the right to marry
p1247
aVMajor world religions are against gay marriages
p1248
aVMarriage is about more than procreation, therefore gay couples should not be denied the right to marry due to their biology.
p1249
aVMarriage should be between a man and a woman
p1250
aVGay couples can declare their union without resort to marriage
p1251
aVGay couples should be able to take advantage of the fiscal and legal benefits of marriage
p1252
aVGay marriage undermines the institution of marriage, leading to an increase in out of wedlock births and divorce rates
p1253
aVIt is discriminatory to refuse gay couples the right to marry
p1254
aVMajor world religions are against gay marriages
p1255
aVMarriage is about more than procreation, therefore gay couples should not be denied the right to marry due to their biology.
p1256
aVMarriage should be between a man and a woman
p1257
aVGay couples can declare their union without resort to marriage
p1258
aVGay couples should be able to take advantage of the fiscal and legal benefits of marriage
p1259
aVGay marriage undermines the institution of marriage, leading to an increase in out of wedlock births and divorce rates
p1260
aVIt is discriminatory to refuse gay couples the right to marry
p1261
aVMajor world religions are against gay marriages
p1262
aVMarriage is about more than procreation, therefore gay couples should not be denied the right to marry due to their biology.
p1263
aVMarriage should be between a man and a woman
p1264
aVGay couples can declare their union without resort to marriage
p1265
aVGay couples should be able to take advantage of the fiscal and legal benefits of marriage
p1266
aVGay marriage undermines the institution of marriage, leading to an increase in out of wedlock births and divorce rates
p1267
aVMajor world religions are against gay marriages
p1268
aVMarriage is about more than procreation, therefore gay couples should not be denied the right to marry due to their biology.
p1269
aVMarriage should be between a man and a woman
p1270
aVGay couples can declare their union without resort to marriage
p1271
aVGay couples should be able to take advantage of the fiscal and legal benefits of marriage
p1272
aVGay marriage undermines the institution of marriage, leading to an increase in out of wedlock births and divorce rates
p1273
aVIt is discriminatory to refuse gay couples the right to marry
p1274
aVMajor world religions are against gay marriages
p1275
aVMarriage is about more than procreation, therefore gay couples should not be denied the right to marry due to their biology.
p1276
aVMarriage should be between a man and a woman
p1277
aVGay couples can declare their union without resort to marriage
p1278
aVGay couples should be able to take advantage of the fiscal and legal benefits of marriage
p1279
aVGay marriage undermines the institution of marriage, leading to an increase in out of wedlock births and divorce rates
p1280
aVIt is discriminatory to refuse gay couples the right to marry
p1281
aVMajor world religions are against gay marriages
p1282
aVMarriage is about more than procreation, therefore gay couples should not be denied the right to marry due to their biology.
p1283
aVMarriage should be between a man and a woman
p1284
aVGay couples can declare their union without resort to marriage
p1285
a.