(lp0
(lp1
(I0
I0
F0.11776358
tp2
a(I0
I1
F0.28166783
tp3
aa(lp4
(I1
I0
F0.25962678
tp5
a(I1
I1
F0.24069077
tp6
aa(lp7
(I2
I0
F0.25768036
tp8
a(I2
I1
F0.11779243
tp9
aa(lp10
(I3
I0
F0.16801023
tp11
a(I3
I1
F0.66076714
tp12
a(I3
I2
F0.091753915
tp13
a(I3
I3
F0.25778386
tp14
a(I3
I4
F0.20383625
tp15
a(I3
I5
F0.27221644
tp16
a(I3
I6
F0.0
tp17
a(I3
I7
F0.07629437
tp18
a(I3
I8
F0.05034995
tp19
a(I3
I9
F0.027912531
tp20
a(I3
I10
F0.021116078
tp21
a(I3
I11
F0.05584834
tp22
a(I3
I12
F0.030883012
tp23
a(I3
I13
F0.04143785
tp24
a(I3
I14
F0.2664858
tp25
aa(lp26
(I4
I0
F0.011665906
tp27
a(I4
I1
F0.123780824
tp28
a(I4
I2
F0.08029259
tp29
a(I4
I3
F0.12822352
tp30
a(I4
I4
F0.0
tp31
a(I4
I5
F0.1673213
tp32
a(I4
I6
F0.0
tp33
a(I4
I7
F0.06190377
tp34
a(I4
I8
F0.0
tp35
a(I4
I9
F0.08474349
tp36
a(I4
I10
F0.0
tp37
a(I4
I11
F0.09319609
tp38
a(I4
I12
F0.019020656
tp39
a(I4
I13
F0.08087186
tp40
a(I4
I14
F0.45397007
tp41
aa(lp42
(I5
I0
F0.23102117
tp43
a(I5
I1
F0.14524372
tp44
a(I5
I2
F0.05878708
tp45
a(I5
I3
F0.20623322
tp46
a(I5
I4
F0.18422219
tp47
a(I5
I5
F0.13978282
tp48
a(I5
I6
F0.0
tp49
aa(lp50
(I6
I0
F0.12982926
tp51
a(I6
I1
F0.16207431
tp52
a(I6
I2
F0.0355357
tp53
a(I6
I3
F0.14393693
tp54
a(I6
I4
F0.22979899
tp55
a(I6
I5
F0.078144446
tp56
a(I6
I6
F0.0
tp57
aa(lp58
(I7
I0
F0.14805414
tp59
a(I7
I1
F0.13587199
tp60
a(I7
I2
F0.12432681
tp61
a(I7
I3
F0.20792045
tp62
a(I7
I4
F0.09705832
tp63
a(I7
I5
F0.20584057
tp64
a(I7
I6
F0.0
tp65
aa(lp66
(I8
I0
F0.15006568
tp67
a(I8
I1
F0.31902784
tp68
a(I8
I2
F0.19140789
tp69
aa(lp70
(I9
I0
F0.065086626
tp71
a(I9
I1
F0.11592319
tp72
a(I9
I2
F0.11029255
tp73
aa(lp74
(I10
I0
F0.06985868
tp75
a(I10
I1
F0.1816011
tp76
a(I10
I2
F0.25760505
tp77
aa(lp78
(I11
I0
F0.30144703
tp79
a(I11
I1
F0.20050026
tp80
a(I11
I2
F0.0
tp81
aa(lp82
(I12
I0
F0.10697685
tp83
a(I12
I1
F0.08688388
tp84
a(I12
I2
F0.0
tp85
aa(lp86
(I13
I0
F0.2554917
tp87
aa(lp88
(I14
I0
F0.06233135
tp89
aa(lp90
(I15
I0
F0.3263848
tp91
aa(lp92
(I16
I0
F0.40212482
tp93
a(I16
I1
F0.09783086
tp94
a(I16
I2
F0.16511992
tp95
aa(lp96
(I17
I0
F0.22886416
tp97
a(I17
I1
F0.04997108
tp98
a(I17
I2
F0.07842434
tp99
aa(lp100
(I18
I0
F0.24575447
tp101
a(I18
I1
F0.12810506
tp102
a(I18
I2
F0.16234569
tp103
aa(lp104
(I19
I0
F0.107409336
tp105
a(I19
I1
F0.2642859
tp106
a(I19
I2
F0.24810734
tp107
a(I19
I3
F0.10201851
tp108
a(I19
I4
F0.07585693
tp109
a(I19
I5
F0.2522207
tp110
aa(lp111
(I20
I0
F0.04656541
tp112
a(I20
I1
F0.0574307
tp113
a(I20
I2
F0.19858731
tp114
a(I20
I3
F0.04066462
tp115
a(I20
I4
F0.019520167
tp116
a(I20
I5
F0.069066815
tp117
aa(lp118
(I21
I0
F0.07155093
tp119
a(I21
I1
F0.38874722
tp120
a(I21
I2
F0.28982896
tp121
a(I21
I3
F0.3308448
tp122
a(I21
I4
F0.0
tp123
a(I21
I5
F0.21617605
tp124
aa(lp125
(I22
I0
F0.12719485
tp126
a(I22
I1
F0.7014954
tp127
a(I22
I2
F0.019809302
tp128
a(I22
I3
F0.09946804
tp129
a(I22
I4
F0.06574764
tp130
a(I22
I5
F0.37910673
tp131
aa(lp132
(I23
I0
F0.26373172
tp133
a(I23
I1
F0.30832702
tp134
a(I23
I2
F0.01744817
tp135
a(I23
I3
F0.1815545
tp136
a(I23
I4
F0.06732292
tp137
a(I23
I5
F0.29841492
tp138
aa(lp139
(I24
I0
F0.28015766
tp140
a(I24
I1
F0.17623869
tp141
a(I24
I2
F0.030628698
tp142
a(I24
I3
F0.052933034
tp143
a(I24
I4
F0.20801331
tp144
a(I24
I5
F0.3053846
tp145
aa(lp146
(I25
I0
F0.057150654
tp147
a(I25
I1
F0.058547575
tp148
aa(lp149
(I26
I0
F0.111051485
tp150
a(I26
I1
F0.045955118
tp151
aa(lp152
(I27
I0
F0.1398231
tp153
a(I27
I1
F0.05064313
tp154
aa(lp155
(I28
I0
F0.44223619
tp156
a(I28
I1
F0.2073279
tp157
a(I28
I2
F0.27101913
tp158
aa(lp159
(I29
I0
F0.3882961
tp160
a(I29
I1
F0.13430707
tp161
a(I29
I2
F0.26752216
tp162
aa(lp163
(I30
I0
F0.11202455
tp164
a(I30
I1
F0.40677702
tp165
a(I30
I2
F0.33232665
tp166
aa(lp167
(I31
I0
F0.039582215
tp168
a(I31
I1
F0.33308873
tp169
aa(lp170
(I32
I0
F0.11726174
tp171
a(I32
I1
F0.3541305
tp172
aa(lp173
(I33
I0
F0.073143885
tp174
a(I33
I1
F0.3292336
tp175
aa(lp176
(I34
I0
F0.42295596
tp177
a(I34
I1
F0.26236787
tp178
a(I34
I2
F0.24050438
tp179
a(I34
I3
F0.15087529
tp180
aa(lp181
(I35
I0
F0.11267149
tp182
a(I35
I1
F0.066945694
tp183
a(I35
I2
F0.24284776
tp184
a(I35
I3
F0.041710794
tp185
aa(lp186
(I36
I0
F0.42177922
tp187
a(I36
I1
F0.37739876
tp188
a(I36
I2
F0.29850417
tp189
a(I36
I3
F0.05931719
tp190
aa(lp191
(I37
I0
F0.15115216
tp192
a(I37
I1
F0.29950354
tp193
a(I37
I2
F0.17160356
tp194
a(I37
I3
F0.23460297
tp195
a(I37
I4
F0.3787955
tp196
aa(lp197
(I38
I0
F0.103386
tp198
a(I38
I1
F0.1389666
tp199
a(I38
I2
F0.07483744
tp200
a(I38
I3
F0.068450734
tp201
a(I38
I4
F0.25715262
tp202
aa(lp203
(I39
I0
F0.3144206
tp204
a(I39
I1
F0.21217312
tp205
a(I39
I2
F0.2639301
tp206
a(I39
I3
F0.14365381
tp207
a(I39
I4
F0.34637782
tp208
aa(lp209
(I40
I0
F0.10285833
tp210
a(I40
I1
F0.19000629
tp211
a(I40
I2
F0.0
tp212
a(I40
I3
F0.17548272
tp213
aa(lp214
(I41
I0
F0.13140197
tp215
a(I41
I1
F0.13159934
tp216
a(I41
I2
F0.0
tp217
a(I41
I3
F0.10775109
tp218
aa(lp219
(I42
I0
F0.37428552
tp220
a(I42
I1
F0.18400365
tp221
a(I42
I2
F0.0
tp222
a(I42
I3
F0.19299588
tp223
aa(lp224
(I43
I0
F0.33521232
tp225
a(I43
I1
F0.24204539
tp226
a(I43
I2
F0.7271046
tp227
a(I43
I3
F0.29723436
tp228
aa(lp229
(I44
I0
F0.3436381
tp230
a(I44
I1
F0.23275688
tp231
a(I44
I2
F0.18644617
tp232
a(I44
I3
F0.14699164
tp233
aa(lp234
(I45
I0
F0.15493995
tp235
a(I45
I1
F0.23656711
tp236
a(I45
I2
F0.10808098
tp237
a(I45
I3
F0.14713068
tp238
aa(lp239
(I46
I0
F0.08723166
tp240
a(I46
I1
F0.14554136
tp241
a(I46
I2
F0.22147414
tp242
a(I46
I3
F0.3281816
tp243
a(I46
I4
F0.19214879
tp244
a(I46
I5
F0.2130656
tp245
a(I46
I6
F0.04670347
tp246
aa(lp247
(I47
I0
F0.082725696
tp248
a(I47
I1
F0.16472913
tp249
a(I47
I2
F0.10939077
tp250
a(I47
I3
F0.34923518
tp251
a(I47
I4
F0.16223668
tp252
a(I47
I5
F0.08910293
tp253
a(I47
I6
F0.033796355
tp254
aa(lp255
(I48
I0
F0.29273093
tp256
a(I48
I1
F0.24004433
tp257
a(I48
I2
F0.32250172
tp258
a(I48
I3
F0.33485672
tp259
a(I48
I4
F0.2347046
tp260
a(I48
I5
F0.33782053
tp261
a(I48
I6
F0.040131222
tp262
aa(lp263
(I49
I0
F0.17255558
tp264
a(I49
I1
F0.24536975
tp265
a(I49
I2
F0.09665178
tp266
a(I49
I3
F0.2730856
tp267
aa(lp268
(I50
I0
F0.05900074
tp269
a(I50
I1
F0.1533662
tp270
a(I50
I2
F0.023520987
tp271
a(I50
I3
F0.28195435
tp272
aa(lp273
(I51
I0
F0.18422611
tp274
a(I51
I1
F0.27208498
tp275
a(I51
I2
F0.08977298
tp276
a(I51
I3
F0.19984736
tp277
aa(lp278
(I52
I0
F0.58539563
tp279
a(I52
I1
F0.28943014
tp280
aa(lp281
(I53
I0
F0.29856232
tp282
a(I53
I1
F0.31452498
tp283
aa(lp284
(I54
I0
F0.28403485
tp285
a(I54
I1
F0.50470513
tp286
aa(lp287
(I55
I0
F0.02999306
tp288
a(I55
I1
F0.11312682
tp289
a(I55
I2
F0.0
tp290
a(I55
I3
F0.11867432
tp291
a(I55
I4
F0.35672066
tp292
a(I55
I5
F0.23455656
tp293
a(I55
I6
F0.0
tp294
a(I55
I7
F0.114170626
tp295
aa(lp296
(I56
I0
F0.045549348
tp297
a(I56
I1
F0.04351919
tp298
a(I56
I2
F0.0
tp299
a(I56
I3
F0.054117106
tp300
a(I56
I4
F0.3151688
tp301
a(I56
I5
F0.10619192
tp302
a(I56
I6
F0.0
tp303
a(I56
I7
F0.114821695
tp304
aa(lp305
(I57
I0
F0.029609315
tp306
a(I57
I1
F0.07389523
tp307
a(I57
I2
F0.0
tp308
a(I57
I3
F0.13860175
tp309
a(I57
I4
F0.27850333
tp310
a(I57
I5
F0.19374648
tp311
a(I57
I6
F0.0
tp312
a(I57
I7
F0.310478
tp313
aa(lp314
(I58
I0
F0.35969007
tp315
a(I58
I1
F0.24701145
tp316
a(I58
I2
F0.37854496
tp317
a(I58
I3
F0.33037424
tp318
a(I58
I4
F0.31579894
tp319
aa(lp320
(I59
I0
F0.22561692
tp321
a(I59
I1
F0.09198786
tp322
a(I59
I2
F0.106102996
tp323
a(I59
I3
F0.43631443
tp324
a(I59
I4
F0.19727774
tp325
aa(lp326
(I60
I0
F0.34873426
tp327
a(I60
I1
F0.17580827
tp328
a(I60
I2
F0.45623243
tp329
a(I60
I3
F0.36682326
tp330
a(I60
I4
F0.29000926
tp331
aa(lp332
(I61
I0
F0.42062926
tp333
a(I61
I1
F0.36860695
tp334
a(I61
I2
F0.53876895
tp335
a(I61
I3
F0.40168104
tp336
a(I61
I4
F0.40244782
tp337
aa(lp338
(I62
I0
F0.26554933
tp339
a(I62
I1
F0.36144722
tp340
a(I62
I2
F0.3173566
tp341
a(I62
I3
F0.4343492
tp342
a(I62
I4
F0.39428377
tp343
aa(lp344
(I63
I0
F0.37277701
tp345
a(I63
I1
F0.14971913
tp346
a(I63
I2
F0.19846334
tp347
a(I63
I3
F0.45435145
tp348
a(I63
I4
F0.123788625
tp349
aa(lp350
(I64
I0
F0.06977813
tp351
a(I64
I1
F0.15468286
tp352
a(I64
I2
F0.040463235
tp353
a(I64
I3
F0.04150605
tp354
a(I64
I4
F0.13288812
tp355
a(I64
I5
F0.064881206
tp356
a(I64
I6
F0.09246436
tp357
a(I64
I7
F0.034120847
tp358
a(I64
I8
F0.032669824
tp359
a(I64
I9
F0.059384122
tp360
a(I64
I10
F0.0
tp361
aa(lp362
(I65
I0
F0.06874401
tp363
a(I65
I1
F0.18099082
tp364
a(I65
I2
F0.27034214
tp365
a(I65
I3
F0.118427016
tp366
a(I65
I4
F0.23413266
tp367
a(I65
I5
F0.030840522
tp368
a(I65
I6
F0.055720925
tp369
a(I65
I7
F0.032010444
tp370
a(I65
I8
F0.040795762
tp371
a(I65
I9
F0.02729608
tp372
a(I65
I10
F0.0
tp373
aa(lp374
(I66
I0
F0.054212995
tp375
a(I66
I1
F0.1374042
tp376
a(I66
I2
F0.35052714
tp377
a(I66
I3
F0.3454206
tp378
a(I66
I4
F0.22143118
tp379
a(I66
I5
F0.0682099
tp380
a(I66
I6
F0.017300617
tp381
a(I66
I7
F0.04968882
tp382
a(I66
I8
F0.01828476
tp383
a(I66
I9
F0.35441065
tp384
a(I66
I10
F0.05981443
tp385
aa(lp386
(I67
I0
F0.3300806
tp387
a(I67
I1
F0.49175468
tp388
a(I67
I2
F0.22256315
tp389
a(I67
I3
F0.48903808
tp390
a(I67
I4
F0.2807922
tp391
aa(lp392
(I68
I0
F0.19013183
tp393
a(I68
I1
F0.38889262
tp394
a(I68
I2
F0.262983
tp395
a(I68
I3
F0.24513283
tp396
a(I68
I4
F0.267619
tp397
aa(lp398
(I69
I0
F0.46536073
tp399
a(I69
I1
F0.48036548
tp400
a(I69
I2
F0.44638172
tp401
a(I69
I3
F0.3095073
tp402
a(I69
I4
F0.30508304
tp403
aa(lp404
(I70
I0
F0.5164551
tp405
a(I70
I1
F0.22234659
tp406
a(I70
I2
F0.19586283
tp407
a(I70
I3
F0.2266794
tp408
a(I70
I4
F0.28820544
tp409
a(I70
I5
F0.5164551
tp410
aa(lp411
(I71
I0
F0.4582635
tp412
a(I71
I1
F0.32360706
tp413
a(I71
I2
F0.4127318
tp414
a(I71
I3
F0.08070856
tp415
a(I71
I4
F0.2220176
tp416
a(I71
I5
F0.4582635
tp417
aa(lp418
(I72
I0
F0.41542676
tp419
a(I72
I1
F0.2183834
tp420
a(I72
I2
F0.15913837
tp421
a(I72
I3
F0.13489506
tp422
a(I72
I4
F0.29196015
tp423
a(I72
I5
F0.41542676
tp424
aa(lp425
(I73
I0
F0.2799464
tp426
a(I73
I1
F0.3505919
tp427
aa(lp428
(I74
I0
F0.083131745
tp429
a(I74
I1
F0.36729524
tp430
aa(lp431
(I75
I0
F0.56877726
tp432
a(I75
I1
F0.11869857
tp433
a(I75
I2
F0.3201382
tp434
aa(lp435
(I76
I0
F0.14064713
tp436
a(I76
I1
F0.3254658
tp437
a(I76
I2
F0.22138909
tp438
aa(lp439
(I77
I0
F0.1339665
tp440
a(I77
I1
F0.34796134
tp441
a(I77
I2
F0.42846766
tp442
aa(lp443
(I78
I0
F0.30745217
tp444
a(I78
I1
F0.21988438
tp445
a(I78
I2
F0.12686422
tp446
a(I78
I3
F0.0
tp447
a(I78
I4
F0.20987196
tp448
a(I78
I5
F0.6042114
tp449
a(I78
I6
F0.16947225
tp450
aa(lp451
(I79
I0
F0.14374033
tp452
a(I79
I1
F0.093354434
tp453
a(I79
I2
F0.0
tp454
a(I79
I3
F0.0
tp455
a(I79
I4
F0.10427061
tp456
a(I79
I5
F0.119327635
tp457
a(I79
I6
F0.06659749
tp458
aa(lp459
(I80
I0
F0.3589795
tp460
a(I80
I1
F0.15369225
tp461
a(I80
I2
F0.0
tp462
a(I80
I3
F0.0
tp463
a(I80
I4
F0.15238613
tp464
a(I80
I5
F0.33638263
tp465
a(I80
I6
F0.11842398
tp466
aa(lp467
(I81
I0
F0.36469996
tp468
a(I81
I1
F0.3359033
tp469
a(I81
I2
F0.23461711
tp470
a(I81
I3
F0.06618419
tp471
aa(lp472
(I82
I0
F0.11035408
tp473
a(I82
I1
F0.24390872
tp474
a(I82
I2
F0.14508347
tp475
a(I82
I3
F0.08394187
tp476
aa(lp477
(I83
I0
F0.04321827
tp478
a(I83
I1
F0.28655505
tp479
a(I83
I2
F0.09541701
tp480
a(I83
I3
F0.117516674
tp481
aa(lp482
(I84
I0
F0.29997933
tp483
aa(lp484
(I85
I0
F0.18332759
tp485
aa(lp486
(I86
I0
F0.38109955
tp487
aa(lp488
(I87
I0
F0.45491847
tp489
aa(lp490
(I88
I0
F0.43241143
tp491
aa(lp492
(I89
I0
F0.32423192
tp493
a(I89
I1
F0.17510009
tp494
a(I89
I2
F0.282949
tp495
a(I89
I3
F0.15450783
tp496
a(I89
I4
F0.18742661
tp497
a(I89
I5
F0.27303398
tp498
aa(lp499
(I90
I0
F0.23874146
tp500
a(I90
I1
F0.23564798
tp501
a(I90
I2
F0.19478053
tp502
a(I90
I3
F0.2220481
tp503
a(I90
I4
F0.154935
tp504
a(I90
I5
F0.26537365
tp505
aa(lp506
(I91
I0
F0.34370795
tp507
a(I91
I1
F0.2643741
tp508
a(I91
I2
F0.38696787
tp509
aa(lp510
(I92
I0
F0.2700218
tp511
a(I92
I1
F0.3172054
tp512
a(I92
I2
F0.18786155
tp513
aa(lp514
(I93
I0
F0.27634805
tp515
a(I93
I1
F0.12738107
tp516
a(I93
I2
F0.14529562
tp517
aa(lp518
(I94
I0
F0.081486076
tp519
a(I94
I1
F0.25851172
tp520
a(I94
I2
F0.20291525
tp521
a(I94
I3
F0.20299648
tp522
a(I94
I4
F0.23546444
tp523
a(I94
I5
F0.14244068
tp524
a(I94
I6
F0.19026898
tp525
a(I94
I7
F0.40836474
tp526
a(I94
I8
F0.22023983
tp527
a(I94
I9
F0.092327684
tp528
a(I94
I10
F0.13874957
tp529
a(I94
I11
F0.22274145
tp530
aa(lp531
(I95
I0
F0.03327228
tp532
a(I95
I1
F0.0738729
tp533
a(I95
I2
F0.108313374
tp534
a(I95
I3
F0.06366709
tp535
a(I95
I4
F0.11227433
tp536
a(I95
I5
F0.10666446
tp537
a(I95
I6
F0.12189564
tp538
a(I95
I7
F0.32763964
tp539
a(I95
I8
F0.23762749
tp540
a(I95
I9
F0.098289765
tp541
a(I95
I10
F0.052802812
tp542
a(I95
I11
F0.14366786
tp543
aa(lp544
(I96
I0
F0.11662525
tp545
a(I96
I1
F0.17609875
tp546
a(I96
I2
F0.20071231
tp547
a(I96
I3
F0.13044825
tp548
a(I96
I4
F0.21595725
tp549
a(I96
I5
F0.15920323
tp550
a(I96
I6
F0.17785208
tp551
a(I96
I7
F0.40042824
tp552
a(I96
I8
F0.1969111
tp553
a(I96
I9
F0.1714412
tp554
a(I96
I10
F0.2573775
tp555
a(I96
I11
F0.23440412
tp556
aa(lp557
(I97
I0
F0.19328883
tp558
a(I97
I1
F0.34604412
tp559
a(I97
I2
F0.43872163
tp560
a(I97
I3
F0.19528909
tp561
a(I97
I4
F0.13964777
tp562
a(I97
I5
F0.35902348
tp563
aa(lp564
(I98
I0
F0.09562564
tp565
a(I98
I1
F0.24988918
tp566
a(I98
I2
F0.25468293
tp567
a(I98
I3
F0.0118898945
tp568
a(I98
I4
F0.072782025
tp569
a(I98
I5
F0.30249608
tp570
aa(lp571
(I99
I0
F0.2241468
tp572
a(I99
I1
F0.32395425
tp573
aa(lp574
(I100
I0
F0.23794575
tp575
a(I100
I1
F0.37320173
tp576
aa(lp577
(I101
I0
F0.36771044
tp578
a(I101
I1
F0.35953772
tp579
aa(lp580
(I102
I0
F0.12874964
tp581
a(I102
I1
F0.12893587
tp582
a(I102
I2
F0.10982145
tp583
aa(lp584
(I103
I0
F0.13311075
tp585
a(I103
I1
F0.24953926
tp586
a(I103
I2
F0.24928394
tp587
aa(lp588
(I104
I0
F0.12710966
tp589
a(I104
I1
F0.0
tp590
a(I104
I2
F0.57410425
tp591
a(I104
I3
F0.034320407
tp592
aa(lp593
(I105
I0
F0.06650163
tp594
a(I105
I1
F0.19230434
tp595
a(I105
I2
F0.38356987
tp596
a(I105
I3
F0.14838883
tp597
aa(lp598
(I106
I0
F0.083607934
tp599
a(I106
I1
F0.24080496
tp600
aa(lp601
(I107
I0
F0.13710077
tp602
a(I107
I1
F0.12219719
tp603
aa(lp604
(I108
I0
F0.0090640895
tp605
a(I108
I1
F0.14147356
tp606
aa(lp607
(I109
I0
F0.21372302
tp608
a(I109
I1
F0.24139625
tp609
a(I109
I2
F0.18044524
tp610
a(I109
I3
F0.061598822
tp611
a(I109
I4
F0.27687564
tp612
a(I109
I5
F0.3106929
tp613
a(I109
I6
F0.20479628
tp614
a(I109
I7
F0.20763913
tp615
a(I109
I8
F0.2996028
tp616
aa(lp617
(I110
I0
F0.10660841
tp618
a(I110
I1
F0.22715943
tp619
a(I110
I2
F0.09665225
tp620
a(I110
I3
F0.034883752
tp621
a(I110
I4
F0.12344095
tp622
a(I110
I5
F0.038168855
tp623
a(I110
I6
F0.22109732
tp624
a(I110
I7
F0.10937861
tp625
a(I110
I8
F0.05706917
tp626
aa(lp627
(I111
I0
F0.16353993
tp628
a(I111
I1
F0.30892804
tp629
a(I111
I2
F0.43091556
tp630
a(I111
I3
F0.05861299
tp631
a(I111
I4
F0.20128863
tp632
a(I111
I5
F0.108208306
tp633
a(I111
I6
F0.29919478
tp634
a(I111
I7
F0.17724635
tp635
a(I111
I8
F0.28025162
tp636
aa(lp637
(I112
I0
F0.058976717
tp638
aa(lp639
(I113
I0
F0.041186165
tp640
aa(lp641
(I114
I0
F0.22838575
tp642
aa(lp643
(I115
I0
F0.46075618
tp644
aa(lp645
(I116
I0
F0.22589035
tp646
aa(lp647
(I117
I0
F0.2457806
tp648
aa(lp649
(I118
I0
F0.110536344
tp650
a(I118
I1
F0.4414457
tp651
aa(lp652
(I119
I0
F0.09042011
tp653
a(I119
I1
F0.2848099
tp654
aa(lp655
(I120
I0
F0.32918423
tp656
a(I120
I1
F0.312045
tp657
aa(lp658
(I121
I0
F0.5226068
tp659
a(I121
I1
F0.32502675
tp660
a(I121
I2
F0.09920593
tp661
a(I121
I3
F0.24567951
tp662
a(I121
I4
F0.17843176
tp663
a(I121
I5
F0.076884024
tp664
a(I121
I6
F0.32598218
tp665
a(I121
I7
F0.20023572
tp666
a(I121
I8
F0.15245742
tp667
a(I121
I9
F0.35587937
tp668
a(I121
I10
F0.08654225
tp669
aa(lp670
(I122
I0
F0.47467437
tp671
a(I122
I1
F0.2894799
tp672
a(I122
I2
F0.105050094
tp673
a(I122
I3
F0.19148383
tp674
a(I122
I4
F0.069794096
tp675
a(I122
I5
F0.021511555
tp676
a(I122
I6
F0.29132584
tp677
a(I122
I7
F0.08874636
tp678
a(I122
I8
F0.048156362
tp679
a(I122
I9
F0.30767274
tp680
a(I122
I10
F0.084977485
tp681
aa(lp682
(I123
I0
F0.55898905
tp683
a(I123
I1
F0.32566753
tp684
a(I123
I2
F0.1425356
tp685
a(I123
I3
F0.2173477
tp686
a(I123
I4
F0.28634542
tp687
a(I123
I5
F0.03654165
tp688
a(I123
I6
F0.20490554
tp689
a(I123
I7
F0.2845578
tp690
a(I123
I8
F0.18845472
tp691
a(I123
I9
F0.2118817
tp692
a(I123
I10
F0.2663129
tp693
aa(lp694
(I124
I0
F0.14652163
tp695
a(I124
I1
F0.11227805
tp696
a(I124
I2
F0.0
tp697
a(I124
I3
F0.23266833
tp698
a(I124
I4
F0.4187202
tp699
a(I124
I5
F0.24566199
tp700
a(I124
I6
F0.6101251
tp701
aa(lp702
(I125
I0
F0.2806254
tp703
a(I125
I1
F0.121376544
tp704
a(I125
I2
F0.0
tp705
a(I125
I3
F0.13603097
tp706
a(I125
I4
F0.33438975
tp707
a(I125
I5
F0.15320937
tp708
a(I125
I6
F0.17578243
tp709
aa(lp710
(I126
I0
F0.28038102
tp711
a(I126
I1
F0.42824137
tp712
a(I126
I2
F0.0
tp713
a(I126
I3
F0.15429962
tp714
a(I126
I4
F0.21656868
tp715
a(I126
I5
F0.08646216
tp716
a(I126
I6
F0.22263584
tp717
aa(lp718
(I127
I0
F0.4284406
tp719
a(I127
I1
F0.21569672
tp720
a(I127
I2
F0.33999908
tp721
a(I127
I3
F0.15768425
tp722
a(I127
I4
F0.15110837
tp723
a(I127
I5
F0.1960473
tp724
a(I127
I6
F0.23304895
tp725
a(I127
I7
F0.31749466
tp726
a(I127
I8
F0.35180047
tp727
a(I127
I9
F0.08408813
tp728
aa(lp729
(I128
I0
F0.4093568
tp730
a(I128
I1
F0.1611628
tp731
a(I128
I2
F0.1776342
tp732
a(I128
I3
F0.15107009
tp733
a(I128
I4
F0.097944684
tp734
a(I128
I5
F0.38648024
tp735
a(I128
I6
F0.101375654
tp736
a(I128
I7
F0.24191174
tp737
a(I128
I8
F0.32894447
tp738
a(I128
I9
F0.050394386
tp739
aa(lp740
(I129
I0
F0.3212061
tp741
a(I129
I1
F0.21069753
tp742
a(I129
I2
F0.54756576
tp743
a(I129
I3
F0.41218963
tp744
a(I129
I4
F0.25076813
tp745
a(I129
I5
F0.16512038
tp746
a(I129
I6
F0.36383554
tp747
a(I129
I7
F0.35746554
tp748
a(I129
I8
F0.44204864
tp749
a(I129
I9
F0.12708852
tp750
aa(lp751
(I130
I0
F0.3794783
tp752
a(I130
I1
F0.12800114
tp753
a(I130
I2
F0.0
tp754
a(I130
I3
F0.0
tp755
a(I130
I4
F0.11813249
tp756
a(I130
I5
F0.07273216
tp757
a(I130
I6
F0.0911195
tp758
aa(lp759
(I131
I0
F0.48155645
tp760
a(I131
I1
F0.23658057
tp761
a(I131
I2
F0.061737023
tp762
a(I131
I3
F0.0
tp763
a(I131
I4
F0.28532416
tp764
a(I131
I5
F0.08557025
tp765
a(I131
I6
F0.18571754
tp766
aa(lp767
(I132
I0
F0.3869748
tp768
a(I132
I1
F0.24316433
tp769
a(I132
I2
F0.060809553
tp770
a(I132
I3
F0.0
tp771
a(I132
I4
F0.23700689
tp772
a(I132
I5
F0.059662662
tp773
a(I132
I6
F0.18900344
tp774
aa(lp775
(I133
I0
F0.043601844
tp776
a(I133
I1
F0.15249841
tp777
a(I133
I2
F0.12778556
tp778
a(I133
I3
F0.1755245
tp779
a(I133
I4
F0.07070251
tp780
a(I133
I5
F0.1949804
tp781
aa(lp782
(I134
I0
F0.044416104
tp783
a(I134
I1
F0.09857764
tp784
a(I134
I2
F0.069927186
tp785
a(I134
I3
F0.122583
tp786
a(I134
I4
F0.013741612
tp787
a(I134
I5
F0.0540505
tp788
aa(lp789
(I135
I0
F0.3495361
tp790
a(I135
I1
F0.15657999
tp791
a(I135
I2
F0.12410291
tp792
a(I135
I3
F0.27928755
tp793
a(I135
I4
F0.09641653
tp794
a(I135
I5
F0.063450456
tp795
aa(lp796
(I136
I0
F0.0
tp797
a(I136
I1
F0.3844615
tp798
a(I136
I2
F0.081795305
tp799
a(I136
I3
F0.37276402
tp800
aa(lp801
(I137
I0
F0.0
tp802
a(I137
I1
F0.4790994
tp803
a(I137
I2
F0.05395125
tp804
a(I137
I3
F0.34870353
tp805
aa(lp806
(I138
I0
F0.13701382
tp807
a(I138
I1
F0.34599853
tp808
a(I138
I2
F0.09059774
tp809
a(I138
I3
F0.14537823
tp810
aa(lp811
(I139
I0
F0.35853922
tp812
a(I139
I1
F0.024761626
tp813
a(I139
I2
F0.1269608
tp814
aa(lp815
(I140
I0
F0.2934281
tp816
a(I140
I1
F0.023264227
tp817
a(I140
I2
F0.09923495
tp818
aa(lp819
(I141
I0
F0.271523
tp820
a(I141
I1
F0.036662158
tp821
a(I141
I2
F0.15328585
tp822
aa(lp823
(I142
I0
F0.14313757
tp824
a(I142
I1
F0.7004736
tp825
a(I142
I2
F0.3529339
tp826
a(I142
I3
F0.20777921
tp827
a(I142
I4
F0.22085012
tp828
aa(lp829
(I143
I0
F0.030252697
tp830
a(I143
I1
F0.28119382
tp831
a(I143
I2
F0.35460526
tp832
a(I143
I3
F0.30740228
tp833
a(I143
I4
F0.11592777
tp834
aa(lp835
(I144
I0
F0.14693382
tp836
a(I144
I1
F0.20735307
tp837
a(I144
I2
F0.20483981
tp838
a(I144
I3
F0.122937664
tp839
a(I144
I4
F0.10977401
tp840
aa(lp841
(I145
I0
F0.27615914
tp842
a(I145
I1
F0.21532227
tp843
a(I145
I2
F0.14474544
tp844
a(I145
I3
F0.25889254
tp845
aa(lp846
(I146
I0
F0.26398405
tp847
a(I146
I1
F0.14837286
tp848
a(I146
I2
F0.06331568
tp849
a(I146
I3
F0.12579036
tp850
aa(lp851
(I147
I0
F0.3336221
tp852
a(I147
I1
F0.19782314
tp853
a(I147
I2
F0.16645116
tp854
a(I147
I3
F0.24780795
tp855
aa(lp856
(I148
I0
F0.34700194
tp857
a(I148
I1
F0.40290052
tp858
a(I148
I2
F0.67580175
tp859
a(I148
I3
F0.38149235
tp860
aa(lp861
(I149
I0
F0.3402038
tp862
a(I149
I1
F0.31866232
tp863
a(I149
I2
F0.19061603
tp864
a(I149
I3
F0.06676761
tp865
aa(lp866
(I150
I0
F0.29927474
tp867
a(I150
I1
F0.27929464
tp868
a(I150
I2
F0.16636205
tp869
a(I150
I3
F0.047976185
tp870
aa(lp871
(I151
I0
F0.13879485
tp872
a(I151
I1
F0.2548623
tp873
aa(lp874
(I152
I0
F0.25684255
tp875
a(I152
I1
F0.27684408
tp876
aa(lp877
(I153
I0
F0.28799692
tp878
a(I153
I1
F0.14821534
tp879
aa(lp880
(I154
I0
F0.52939415
tp881
a(I154
I1
F0.27689204
tp882
a(I154
I2
F0.1999471
tp883
a(I154
I3
F0.08024974
tp884
a(I154
I4
F0.28037232
tp885
a(I154
I5
F0.5938981
tp886
a(I154
I6
F0.124598145
tp887
a(I154
I7
F0.5472988
tp888
aa(lp889
(I155
I0
F0.2875146
tp890
a(I155
I1
F0.34102073
tp891
a(I155
I2
F0.2618373
tp892
a(I155
I3
F0.20001554
tp893
a(I155
I4
F0.36222667
tp894
a(I155
I5
F0.15945616
tp895
a(I155
I6
F0.07208053
tp896
a(I155
I7
F0.3407632
tp897
aa(lp898
(I156
I0
F0.26031795
tp899
a(I156
I1
F0.2866114
tp900
a(I156
I2
F0.10164757
tp901
a(I156
I3
F0.21102253
tp902
a(I156
I4
F0.26698235
tp903
a(I156
I5
F0.13489287
tp904
a(I156
I6
F0.145719
tp905
a(I156
I7
F0.13582288
tp906
aa(lp907
(I157
I0
F0.4002543
tp908
aa(lp909
(I158
I0
F0.32143915
tp910
aa(lp911
(I159
I0
F0.35493398
tp912
aa(lp913
(I160
I0
F0.14157948
tp914
a(I160
I1
F0.071633965
tp915
a(I160
I2
F0.27323288
tp916
a(I160
I3
F0.10751411
tp917
aa(lp918
(I161
I0
F0.36936444
tp919
a(I161
I1
F0.35963783
tp920
a(I161
I2
F0.33424118
tp921
a(I161
I3
F0.22892927
tp922
aa(lp923
(I162
I0
F0.3881132
tp924
a(I162
I1
F0.04122651
tp925
a(I162
I2
F0.30837196
tp926
a(I162
I3
F0.088317014
tp927
aa(lp928
(I163
I0
F0.6038455
tp929
aa(lp930
(I164
I0
F0.32052794
tp931
aa(lp932
(I165
I0
F0.23342325
tp933
aa(lp934
(I166
I0
F0.31084633
tp935
a(I166
I1
F0.39372957
tp936
a(I166
I2
F0.22584824
tp937
a(I166
I3
F0.42041093
tp938
aa(lp939
(I167
I0
F0.08307164
tp940
a(I167
I1
F0.31975573
tp941
a(I167
I2
F0.1909196
tp942
a(I167
I3
F0.25445387
tp943
aa(lp944
(I168
I0
F0.24302034
tp945
a(I168
I1
F0.30530077
tp946
a(I168
I2
F0.47254166
tp947
a(I168
I3
F0.29270804
tp948
aa(lp949
(I169
I0
F0.28176042
tp950
a(I169
I1
F0.26739326
tp951
a(I169
I2
F0.26640293
tp952
a(I169
I3
F0.11614
tp953
aa(lp954
(I170
I0
F0.27695337
tp955
a(I170
I1
F0.3032398
tp956
a(I170
I2
F0.21543926
tp957
a(I170
I3
F0.08965495
tp958
aa(lp959
(I171
I0
F0.17445087
tp960
a(I171
I1
F0.38343063
tp961
a(I171
I2
F0.20728266
tp962
a(I171
I3
F0.13429858
tp963
aa(lp964
(I172
I0
F0.42636123
tp965
aa(lp966
(I173
I0
F0.37584546
tp967
aa(lp968
(I174
I0
F0.16562441
tp969
aa(lp970
(I175
I0
F0.2928599
tp971
a(I175
I1
F0.14915404
tp972
a(I175
I2
F0.25661933
tp973
a(I175
I3
F0.15451998
tp974
a(I175
I4
F0.087939
tp975
a(I175
I5
F0.2998907
tp976
aa(lp977
(I176
I0
F0.26381645
tp978
a(I176
I1
F0.035002876
tp979
a(I176
I2
F0.275185
tp980
a(I176
I3
F0.060642533
tp981
a(I176
I4
F0.08155987
tp982
a(I176
I5
F0.29010648
tp983
aa(lp984
(I177
I0
F0.19984293
tp985
a(I177
I1
F0.13244747
tp986
a(I177
I2
F0.15787202
tp987
a(I177
I3
F0.104640625
tp988
a(I177
I4
F0.25588328
tp989
a(I177
I5
F0.32208648
tp990
aa(lp991
(I178
I0
F0.045985702
tp992
a(I178
I1
F0.24077661
tp993
a(I178
I2
F0.19725186
tp994
a(I178
I3
F0.27773598
tp995
a(I178
I4
F0.12213007
tp996
a(I178
I5
F0.21545698
tp997
a(I178
I6
F0.28578582
tp998
aa(lp999
(I179
I0
F0.0
tp1000
a(I179
I1
F0.12899962
tp1001
a(I179
I2
F0.032337192
tp1002
a(I179
I3
F0.20176321
tp1003
a(I179
I4
F0.09643426
tp1004
a(I179
I5
F0.24687108
tp1005
a(I179
I6
F0.26096037
tp1006
aa(lp1007
(I180
I0
F0.073055215
tp1008
a(I180
I1
F0.19692768
tp1009
a(I180
I2
F0.102229245
tp1010
a(I180
I3
F0.27525276
tp1011
a(I180
I4
F0.04342471
tp1012
a(I180
I5
F0.15119381
tp1013
a(I180
I6
F0.19599134
tp1014
aa(lp1015
(I181
I0
F0.3009303
tp1016
a(I181
I1
F0.41813955
tp1017
aa(lp1018
(I182
I0
F0.22454123
tp1019
a(I182
I1
F0.14435257
tp1020
aa(lp1021
(I183
I0
F0.5489278
tp1022
a(I183
I1
F0.4898222
tp1023
aa(lp1024
(I184
I0
F0.2824118
tp1025
a(I184
I1
F0.15293348
tp1026
aa(lp1027
(I185
I0
F0.27208576
tp1028
a(I185
I1
F0.09774349
tp1029
aa(lp1030
(I186
I0
F0.2861812
tp1031
a(I186
I1
F0.49249667
tp1032
aa(lp1033
(I187
I0
F0.14418626
tp1034
a(I187
I1
F0.2839352
tp1035
a(I187
I2
F0.04129667
tp1036
a(I187
I3
F0.11867786
tp1037
a(I187
I4
F0.33147612
tp1038
a(I187
I5
F0.46134317
tp1039
aa(lp1040
(I188
I0
F0.0
tp1041
a(I188
I1
F0.26813653
tp1042
a(I188
I2
F0.017813206
tp1043
a(I188
I3
F0.12308194
tp1044
a(I188
I4
F0.17291774
tp1045
a(I188
I5
F0.32069084
tp1046
aa(lp1047
(I189
I0
F0.03431295
tp1048
a(I189
I1
F0.21824579
tp1049
a(I189
I2
F0.05184621
tp1050
a(I189
I3
F0.13642102
tp1051
a(I189
I4
F0.34526375
tp1052
a(I189
I5
F0.28591928
tp1053
aa(lp1054
(I190
I0
F0.35098803
tp1055
a(I190
I1
F0.28747082
tp1056
a(I190
I2
F0.1385453
tp1057
aa(lp1058
(I191
I0
F0.0838967
tp1059
a(I191
I1
F0.26568824
tp1060
a(I191
I2
F0.25472757
tp1061
aa(lp1062
(I192
I0
F0.094031736
tp1063
a(I192
I1
F0.22657529
tp1064
a(I192
I2
F0.43528122
tp1065
aa(lp1066
(I193
I0
F0.10648837
tp1067
a(I193
I1
F0.13448353
tp1068
aa(lp1069
(I194
I0
F0.07406265
tp1070
a(I194
I1
F0.11242459
tp1071
aa(lp1072
(I195
I0
F0.18390961
tp1073
a(I195
I1
F0.14259966
tp1074
aa(lp1075
(I196
I0
F0.09516405
tp1076
a(I196
I1
F0.13146628
tp1077
a(I196
I2
F0.15245932
tp1078
a(I196
I3
F0.24676542
tp1079
a(I196
I4
F0.4478324
tp1080
a(I196
I5
F0.27382845
tp1081
aa(lp1082
(I197
I0
F0.069439836
tp1083
a(I197
I1
F0.14366849
tp1084
a(I197
I2
F0.101309314
tp1085
a(I197
I3
F0.10260418
tp1086
a(I197
I4
F0.35974652
tp1087
a(I197
I5
F0.12984318
tp1088
aa(lp1089
(I198
I0
F0.21583737
tp1090
a(I198
I1
F0.15692158
tp1091
a(I198
I2
F0.27072945
tp1092
a(I198
I3
F0.27190435
tp1093
a(I198
I4
F0.35290653
tp1094
a(I198
I5
F0.35742068
tp1095
aa(lp1096
(I199
I0
F0.18372442
tp1097
a(I199
I1
F0.28434992
tp1098
aa(lp1099
(I200
I0
F0.3074521
tp1100
a(I200
I1
F0.29797432
tp1101
aa(lp1102
(I201
I0
F0.56577814
tp1103
a(I201
I1
F0.31629077
tp1104
aa(lp1105
(I202
I0
F0.04103374
tp1106
a(I202
I1
F0.1377899
tp1107
a(I202
I2
F0.18150744
tp1108
aa(lp1109
(I203
I0
F0.17613445
tp1110
a(I203
I1
F0.23093253
tp1111
a(I203
I2
F0.15191492
tp1112
aa(lp1113
(I204
I0
F0.1856732
tp1114
a(I204
I1
F0.20692061
tp1115
a(I204
I2
F0.2976036
tp1116
aa(lp1117
(I205
I0
F0.18761028
tp1118
aa(lp1119
(I206
I0
F0.2535749
tp1120
aa(lp1121
(I207
I0
F0.32391858
tp1122
aa(lp1123
(I208
I0
F0.1394223
tp1124
a(I208
I1
F0.2522278
tp1125
a(I208
I2
F0.296064
tp1126
a(I208
I3
F0.0
tp1127
a(I208
I4
F0.066582225
tp1128
aa(lp1129
(I209
I0
F0.31953937
tp1130
a(I209
I1
F0.25032702
tp1131
a(I209
I2
F0.20657374
tp1132
a(I209
I3
F0.0
tp1133
a(I209
I4
F0.14202854
tp1134
aa(lp1135
(I210
I0
F0.016709097
tp1136
a(I210
I1
F0.22235589
tp1137
a(I210
I2
F0.2237294
tp1138
a(I210
I3
F0.0
tp1139
a(I210
I4
F0.077882886
tp1140
aa(lp1141
(I211
I0
F0.2078145
tp1142
a(I211
I1
F0.46856004
tp1143
aa(lp1144
(I212
I0
F0.49074477
tp1145
a(I212
I1
F0.37145936
tp1146
aa(lp1147
(I213
I0
F0.28754184
tp1148
a(I213
I1
F0.25143293
tp1149
aa(lp1150
(I214
I0
F0.52670854
tp1151
a(I214
I1
F0.3151462
tp1152
a(I214
I2
F0.13628769
tp1153
a(I214
I3
F0.26772484
tp1154
a(I214
I4
F0.105427414
tp1155
a(I214
I5
F0.066311866
tp1156
a(I214
I6
F0.31941593
tp1157
a(I214
I7
F0.10569535
tp1158
a(I214
I8
F0.06506243
tp1159
a(I214
I9
F0.27395985
tp1160
a(I214
I10
F0.12975036
tp1161
aa(lp1162
(I215
I0
F0.2949737
tp1163
a(I215
I1
F0.2716485
tp1164
a(I215
I2
F0.26758337
tp1165
a(I215
I3
F0.30174693
tp1166
a(I215
I4
F0.21907263
tp1167
a(I215
I5
F0.02786681
tp1168
a(I215
I6
F0.2764444
tp1169
a(I215
I7
F0.1962442
tp1170
a(I215
I8
F0.071300454
tp1171
a(I215
I9
F0.16243073
tp1172
a(I215
I10
F0.2748785
tp1173
aa(lp1174
(I216
I0
F0.49553004
tp1175
a(I216
I1
F0.29349393
tp1176
a(I216
I2
F0.2581098
tp1177
a(I216
I3
F0.30381343
tp1178
a(I216
I4
F0.38487458
tp1179
a(I216
I5
F0.030273542
tp1180
a(I216
I6
F0.32954124
tp1181
a(I216
I7
F0.22680734
tp1182
a(I216
I8
F0.09419319
tp1183
a(I216
I9
F0.13434759
tp1184
a(I216
I10
F0.24696535
tp1185
aa(lp1186
(I217
I0
F0.8245562
tp1187
a(I217
I1
F0.27424338
tp1188
a(I217
I2
F0.4280842
tp1189
a(I217
I3
F0.19621085
tp1190
a(I217
I4
F0.15086362
tp1191
a(I217
I5
F0.23264506
tp1192
a(I217
I6
F0.15592752
tp1193
a(I217
I7
F0.34435666
tp1194
a(I217
I8
F0.3400821
tp1195
a(I217
I9
F0.041242685
tp1196
aa(lp1197
(I218
I0
F0.2224974
tp1198
a(I218
I1
F0.2480532
tp1199
a(I218
I2
F0.36219612
tp1200
a(I218
I3
F0.31123614
tp1201
a(I218
I4
F0.34696686
tp1202
a(I218
I5
F0.094963975
tp1203
a(I218
I6
F0.32820648
tp1204
a(I218
I7
F0.24848446
tp1205
a(I218
I8
F0.053248
tp1206
a(I218
I9
F0.020001968
tp1207
aa(lp1208
(I219
I0
F0.26821193
tp1209
a(I219
I1
F0.151846
tp1210
a(I219
I2
F0.295728
tp1211
a(I219
I3
F0.33060277
tp1212
a(I219
I4
F0.322033
tp1213
a(I219
I5
F0.076289795
tp1214
a(I219
I6
F0.31163916
tp1215
a(I219
I7
F0.28583956
tp1216
a(I219
I8
F0.13544284
tp1217
a(I219
I9
F0.0
tp1218
aa(lp1219
(I220
I0
F0.2259359
tp1220
a(I220
I1
F0.1493651
tp1221
a(I220
I2
F0.10312288
tp1222
a(I220
I3
F0.24442779
tp1223
aa(lp1224
(I221
I0
F0.1992153
tp1225
a(I221
I1
F0.06401534
tp1226
a(I221
I2
F0.08155186
tp1227
a(I221
I3
F0.08550495
tp1228
aa(lp1229
(I222
I0
F0.1522782
tp1230
a(I222
I1
F0.10655188
tp1231
a(I222
I2
F0.080066964
tp1232
a(I222
I3
F0.2805265
tp1233
aa(lp1234
(I223
I0
F0.56673723
tp1235
aa(lp1236
(I224
I0
F0.31826723
tp1237
aa(lp1238
(I225
I0
F0.1915207
tp1239
aa(lp1240
(I226
I0
F0.3346606
tp1241
a(I226
I1
F0.3723707
tp1242
aa(lp1243
(I227
I0
F0.31557187
tp1244
a(I227
I1
F0.29275548
tp1245
aa(lp1246
(I228
I0
F0.36223182
tp1247
a(I228
I1
F0.19231325
tp1248
aa(lp1249
(I229
I0
F0.13274424
tp1250
a(I229
I1
F0.18149826
tp1251
a(I229
I2
F0.084552065
tp1252
a(I229
I3
F0.12609376
tp1253
a(I229
I4
F0.06679715
tp1254
a(I229
I5
F0.098746575
tp1255
aa(lp1256
(I230
I0
F0.30090898
tp1257
a(I230
I1
F0.42592958
tp1258
a(I230
I2
F0.037487477
tp1259
a(I230
I3
F0.18024331
tp1260
a(I230
I4
F0.05768738
tp1261
a(I230
I5
F0.2752359
tp1262
aa(lp1263
(I231
I0
F0.44511878
tp1264
a(I231
I1
F0.22090413
tp1265
a(I231
I2
F0.17984544
tp1266
a(I231
I3
F0.4911574
tp1267
a(I231
I4
F0.0814082
tp1268
a(I231
I5
F0.31774744
tp1269
aa(lp1270
(I232
I0
F0.037838746
tp1271
a(I232
I1
F0.023347395
tp1272
a(I232
I2
F0.72803265
tp1273
aa(lp1274
(I233
I0
F0.025440872
tp1275
a(I233
I1
F0.07152237
tp1276
a(I233
I2
F0.39352128
tp1277
aa(lp1278
(I234
I0
F0.08312236
tp1279
a(I234
I1
F0.09080495
tp1280
a(I234
I2
F0.33496752
tp1281
aa(lp1282
(I235
I0
F0.13116395
tp1283
a(I235
I1
F0.11287635
tp1284
a(I235
I2
F0.20664723
tp1285
a(I235
I3
F0.11444401
tp1286
aa(lp1287
(I236
I0
F0.0999984
tp1288
a(I236
I1
F0.05426855
tp1289
a(I236
I2
F0.08206723
tp1290
a(I236
I3
F0.10724346
tp1291
aa(lp1292
(I237
I0
F0.13060343
tp1293
a(I237
I1
F0.15239951
tp1294
a(I237
I2
F0.20443203
tp1295
a(I237
I3
F0.27042305
tp1296
aa(lp1297
(I238
I0
F0.31125975
tp1298
a(I238
I1
F0.1288198
tp1299
a(I238
I2
F0.21865372
tp1300
a(I238
I3
F0.10247405
tp1301
a(I238
I4
F0.13403483
tp1302
a(I238
I5
F0.17026207
tp1303
a(I238
I6
F0.07491108
tp1304
a(I238
I7
F0.0747793
tp1305
aa(lp1306
(I239
I0
F0.13251191
tp1307
a(I239
I1
F0.030329844
tp1308
a(I239
I2
F0.11258799
tp1309
a(I239
I3
F0.025737714
tp1310
a(I239
I4
F0.097517654
tp1311
a(I239
I5
F0.12377382
tp1312
a(I239
I6
F0.043701544
tp1313
a(I239
I7
F0.047525603
tp1314
aa(lp1315
(I240
I0
F0.48780316
tp1316
a(I240
I1
F0.11046834
tp1317
a(I240
I2
F0.24525648
tp1318
a(I240
I3
F0.111495934
tp1319
a(I240
I4
F0.15298662
tp1320
a(I240
I5
F0.34511837
tp1321
a(I240
I6
F0.014120391
tp1322
a(I240
I7
F0.030072244
tp1323
aa(lp1324
(I241
I0
F0.0
tp1325
a(I241
I1
F0.14902796
tp1326
a(I241
I2
F0.26990005
tp1327
a(I241
I3
F0.3422661
tp1328
a(I241
I4
F0.06961287
tp1329
aa(lp1330
(I242
I0
F0.0
tp1331
a(I242
I1
F0.095153116
tp1332
a(I242
I2
F0.25679114
tp1333
a(I242
I3
F0.23828696
tp1334
a(I242
I4
F0.14096054
tp1335
aa(lp1336
(I243
I0
F0.0
tp1337
a(I243
I1
F0.1390689
tp1338
a(I243
I2
F0.20579925
tp1339
a(I243
I3
F0.35851407
tp1340
a(I243
I4
F0.09135424
tp1341
aa(lp1342
(I244
I0
F0.13760479
tp1343
a(I244
I1
F0.06042368
tp1344
a(I244
I2
F0.0459152
tp1345
a(I244
I3
F0.09658038
tp1346
aa(lp1347
(I245
I0
F0.11304746
tp1348
a(I245
I1
F0.039615106
tp1349
a(I245
I2
F0.0525226
tp1350
a(I245
I3
F0.08362017
tp1351
aa(lp1352
(I246
I0
F0.059151027
tp1353
a(I246
I1
F0.037196655
tp1354
a(I246
I2
F0.027119836
tp1355
a(I246
I3
F0.13233082
tp1356
aa(lp1357
(I247
I0
F0.729117
tp1358
aa(lp1359
(I248
I0
F0.20796345
tp1360
aa(lp1361
(I249
I0
F0.12844391
tp1362
aa(lp1363
(I250
I0
F0.033986002
tp1364
a(I250
I1
F0.24911104
tp1365
a(I250
I2
F0.45343456
tp1366
a(I250
I3
F0.3025258
tp1367
a(I250
I4
F0.1125656
tp1368
aa(lp1369
(I251
I0
F0.07318066
tp1370
a(I251
I1
F0.20073652
tp1371
a(I251
I2
F0.35281157
tp1372
a(I251
I3
F0.038127862
tp1373
a(I251
I4
F0.094936274
tp1374
aa(lp1375
(I252
I0
F0.14390834
tp1376
a(I252
I1
F0.21560937
tp1377
a(I252
I2
F0.27094573
tp1378
a(I252
I3
F0.16598684
tp1379
a(I252
I4
F0.2435627
tp1380
aa(lp1381
(I253
I0
F0.23935579
tp1382
a(I253
I1
F0.30420235
tp1383
a(I253
I2
F0.41082078
tp1384
a(I253
I3
F0.12455782
tp1385
a(I253
I4
F0.34877712
tp1386
aa(lp1387
(I254
I0
F0.12837783
tp1388
a(I254
I1
F0.26228678
tp1389
a(I254
I2
F0.27177408
tp1390
a(I254
I3
F0.106757134
tp1391
a(I254
I4
F0.28001222
tp1392
aa(lp1393
(I255
I0
F0.33381432
tp1394
a(I255
I1
F0.24788941
tp1395
a(I255
I2
F0.2693876
tp1396
a(I255
I3
F0.10444696
tp1397
a(I255
I4
F0.2154751
tp1398
aa(lp1399
(I256
I0
F0.036141966
tp1400
a(I256
I1
F0.08349227
tp1401
a(I256
I2
F0.07146664
tp1402
a(I256
I3
F0.14954747
tp1403
a(I256
I4
F0.39683753
tp1404
a(I256
I5
F0.16249849
tp1405
aa(lp1406
(I257
I0
F0.053503983
tp1407
a(I257
I1
F0.25093853
tp1408
a(I257
I2
F0.028298972
tp1409
a(I257
I3
F0.08678816
tp1410
a(I257
I4
F0.17047635
tp1411
a(I257
I5
F0.08410297
tp1412
aa(lp1413
(I258
I0
F0.27458984
tp1414
a(I258
I1
F0.29364252
tp1415
a(I258
I2
F0.07262336
tp1416
a(I258
I3
F0.19840655
tp1417
a(I258
I4
F0.25174132
tp1418
a(I258
I5
F0.42805088
tp1419
aa(lp1420
(I259
I0
F0.3390248
tp1421
a(I259
I1
F0.34503946
tp1422
aa(lp1423
(I260
I0
F0.27840316
tp1424
a(I260
I1
F0.22587828
tp1425
aa(lp1426
(I261
I0
F0.1471085
tp1427
a(I261
I1
F0.45738608
tp1428
aa(lp1429
(I262
I0
F0.33938593
tp1430
a(I262
I1
F0.0
tp1431
a(I262
I2
F0.12118054
tp1432
a(I262
I3
F0.29278862
tp1433
a(I262
I4
F0.15086362
tp1434
a(I262
I5
F0.11561648
tp1435
a(I262
I6
F0.093062215
tp1436
a(I262
I7
F0.059526913
tp1437
a(I262
I8
F0.10612582
tp1438
aa(lp1439
(I263
I0
F0.42940772
tp1440
a(I263
I1
F0.0
tp1441
a(I263
I2
F0.24863112
tp1442
a(I263
I3
F0.23302571
tp1443
a(I263
I4
F0.34696686
tp1444
a(I263
I5
F0.07363919
tp1445
a(I263
I6
F0.22708601
tp1446
a(I263
I7
F0.10035379
tp1447
a(I263
I8
F0.11643988
tp1448
aa(lp1449
(I264
I0
F0.34598666
tp1450
a(I264
I1
F0.0
tp1451
a(I264
I2
F0.24771936
tp1452
a(I264
I3
F0.18161519
tp1453
a(I264
I4
F0.322033
tp1454
a(I264
I5
F0.0737201
tp1455
a(I264
I6
F0.30282882
tp1456
a(I264
I7
F0.052708324
tp1457
a(I264
I8
F0.055000525
tp1458
aa(lp1459
(I265
I0
F0.052813653
tp1460
a(I265
I1
F0.19610754
tp1461
aa(lp1462
(I266
I0
F0.06172532
tp1463
a(I266
I1
F0.3291104
tp1464
aa(lp1465
(I267
I0
F0.07444283
tp1466
a(I267
I1
F0.28990492
tp1467
aa(lp1468
(I268
I0
F0.1281652
tp1469
a(I268
I1
F0.38903424
tp1470
a(I268
I2
F0.4000019
tp1471
a(I268
I3
F0.0
tp1472
a(I268
I4
F0.31118414
tp1473
a(I268
I5
F0.37607205
tp1474
a(I268
I6
F0.15391338
tp1475
a(I268
I7
F0.23778905
tp1476
aa(lp1477
(I269
I0
F0.06971452
tp1478
a(I269
I1
F0.29036456
tp1479
a(I269
I2
F0.3611646
tp1480
a(I269
I3
F0.0
tp1481
a(I269
I4
F0.08203943
tp1482
a(I269
I5
F0.3338952
tp1483
a(I269
I6
F0.05313594
tp1484
a(I269
I7
F0.0625897
tp1485
aa(lp1486
(I270
I0
F0.3703014
tp1487
a(I270
I1
F0.23373486
tp1488
a(I270
I2
F0.29719418
tp1489
a(I270
I3
F0.0
tp1490
a(I270
I4
F0.2526133
tp1491
a(I270
I5
F0.2130736
tp1492
a(I270
I6
F0.4116221
tp1493
a(I270
I7
F0.2319005
tp1494
aa(lp1495
(I271
I0
F0.3690844
tp1496
a(I271
I1
F0.2753738
tp1497
a(I271
I2
F0.1362194
tp1498
a(I271
I3
F0.08535764
tp1499
aa(lp1500
(I272
I0
F0.3185777
tp1501
a(I272
I1
F0.21296903
tp1502
a(I272
I2
F0.09436303
tp1503
a(I272
I3
F0.025192956
tp1504
aa(lp1505
(I273
I0
F0.25485644
tp1506
a(I273
I1
F0.14552094
tp1507
a(I273
I2
F0.30473593
tp1508
a(I273
I3
F0.11006334
tp1509
aa(lp1510
(I274
I0
F0.24627744
tp1511
a(I274
I1
F0.030901123
tp1512
a(I274
I2
F0.1488169
tp1513
aa(lp1514
(I275
I0
F0.1789185
tp1515
a(I275
I1
F0.09142287
tp1516
a(I275
I2
F0.13840966
tp1517
aa(lp1518
(I276
I0
F0.094303556
tp1519
a(I276
I1
F0.34536237
tp1520
a(I276
I2
F0.109268665
tp1521
aa(lp1522
(I277
I0
F0.21149638
tp1523
a(I277
I1
F0.3245071
tp1524
a(I277
I2
F0.08418155
tp1525
aa(lp1526
(I278
I0
F0.18579455
tp1527
a(I278
I1
F0.18612193
tp1528
a(I278
I2
F0.07683835
tp1529
aa(lp1530
(I279
I0
F0.46677843
tp1531
a(I279
I1
F0.35115245
tp1532
a(I279
I2
F0.487976
tp1533
aa(lp1534
(I280
I0
F0.2416201
tp1535
a(I280
I1
F0.1549519
tp1536
a(I280
I2
F0.24434869
tp1537
aa(lp1538
(I281
I0
F0.44522572
tp1539
a(I281
I1
F0.25776607
tp1540
a(I281
I2
F0.41914344
tp1541
aa(lp1542
(I282
I0
F0.113115676
tp1543
aa(lp1544
(I283
I0
F0.21852715
tp1545
aa(lp1546
(I284
I0
F0.21613951
tp1547
aa(lp1548
(I285
I0
F0.39770934
tp1549
a(I285
I1
F0.079184555
tp1550
aa(lp1551
(I286
I0
F0.08194637
tp1552
a(I286
I1
F0.06642916
tp1553
aa(lp1554
(I287
I0
F0.18514578
tp1555
a(I287
I1
F0.049180742
tp1556
aa(lp1557
(I288
I0
F0.15026298
tp1558
a(I288
I1
F0.14602406
tp1559
a(I288
I2
F0.0
tp1560
a(I288
I3
F0.46776202
tp1561
a(I288
I4
F0.0
tp1562
aa(lp1563
(I289
I0
F0.276961
tp1564
a(I289
I1
F0.11809655
tp1565
a(I289
I2
F0.0
tp1566
a(I289
I3
F0.35530832
tp1567
a(I289
I4
F0.0
tp1568
aa(lp1569
(I290
I0
F0.40591967
tp1570
a(I290
I1
F0.28130254
tp1571
a(I290
I2
F0.0
tp1572
a(I290
I3
F0.46111086
tp1573
a(I290
I4
F0.0
tp1574
aa(lp1575
(I291
I0
F0.344141
tp1576
a(I291
I1
F0.365122
tp1577
a(I291
I2
F0.12026675
tp1578
a(I291
I3
F0.44479418
tp1579
aa(lp1580
(I292
I0
F0.16876556
tp1581
a(I292
I1
F0.28388128
tp1582
a(I292
I2
F0.2534622
tp1583
a(I292
I3
F0.22581233
tp1584
aa(lp1585
(I293
I0
F0.12811159
tp1586
a(I293
I1
F0.31293827
tp1587
a(I293
I2
F0.4998873
tp1588
a(I293
I3
F0.16107203
tp1589
aa(lp1590
(I294
I0
F0.30495778
tp1591
a(I294
I1
F0.4007509
tp1592
a(I294
I2
F0.36807084
tp1593
aa(lp1594
(I295
I0
F0.119860224
tp1595
a(I295
I1
F0.08301013
tp1596
a(I295
I2
F0.24203879
tp1597
aa(lp1598
(I296
I0
F0.39772174
tp1599
a(I296
I1
F0.2633617
tp1600
a(I296
I2
F0.34225363
tp1601
aa(lp1602
(I297
I0
F0.12993449
tp1603
a(I297
I1
F0.07858518
tp1604
a(I297
I2
F0.19464219
tp1605
a(I297
I3
F0.32492587
tp1606
aa(lp1607
(I298
I0
F0.18168856
tp1608
a(I298
I1
F0.07746213
tp1609
a(I298
I2
F0.09468219
tp1610
a(I298
I3
F0.28950027
tp1611
aa(lp1612
(I299
I0
F0.28002894
tp1613
a(I299
I1
F0.2809583
tp1614
a(I299
I2
F0.22732805
tp1615
a(I299
I3
F0.3173752
tp1616
aa(lp1617
(I300
I0
F0.24272037
tp1618
a(I300
I1
F0.37692174
tp1619
a(I300
I2
F0.20670022
tp1620
a(I300
I3
F0.10845157
tp1621
a(I300
I4
F0.20912199
tp1622
a(I300
I5
F0.2644284
tp1623
a(I300
I6
F0.31009302
tp1624
a(I300
I7
F0.18974867
tp1625
aa(lp1626
(I301
I0
F0.09904139
tp1627
a(I301
I1
F0.13490169
tp1628
a(I301
I2
F0.03970814
tp1629
a(I301
I3
F0.12251027
tp1630
a(I301
I4
F0.1634972
tp1631
a(I301
I5
F0.09577921
tp1632
a(I301
I6
F0.10714041
tp1633
a(I301
I7
F0.09288677
tp1634
aa(lp1635
(I302
I0
F0.22971545
tp1636
a(I302
I1
F0.47300687
tp1637
a(I302
I2
F0.119503826
tp1638
a(I302
I3
F0.10721919
tp1639
a(I302
I4
F0.26484
tp1640
a(I302
I5
F0.39675587
tp1641
a(I302
I6
F0.26551652
tp1642
a(I302
I7
F0.22414844
tp1643
aa(lp1644
(I303
I0
F0.0
tp1645
a(I303
I1
F0.41628456
tp1646
a(I303
I2
F0.3451573
tp1647
a(I303
I3
F0.19703159
tp1648
a(I303
I4
F0.15985237
tp1649
a(I303
I5
F0.35432735
tp1650
a(I303
I6
F0.208864
tp1651
aa(lp1652
(I304
I0
F0.0
tp1653
a(I304
I1
F0.38959676
tp1654
a(I304
I2
F0.29033798
tp1655
a(I304
I3
F0.2080756
tp1656
a(I304
I4
F0.088953994
tp1657
a(I304
I5
F0.22988273
tp1658
a(I304
I6
F0.24720907
tp1659
aa(lp1660
(I305
I0
F0.12850016
tp1661
a(I305
I1
F0.4740172
tp1662
a(I305
I2
F0.43796366
tp1663
a(I305
I3
F0.24803881
tp1664
a(I305
I4
F0.15372021
tp1665
a(I305
I5
F0.10711257
tp1666
a(I305
I6
F0.24090327
tp1667
aa(lp1668
(I306
I0
F0.2476134
tp1669
aa(lp1670
(I307
I0
F0.14619005
tp1671
aa(lp1672
(I308
I0
F0.088086404
tp1673
a(I308
I1
F0.4378458
tp1674
a(I308
I2
F0.5004184
tp1675
a(I308
I3
F0.12457794
tp1676
a(I308
I4
F0.20297286
tp1677
a(I308
I5
F0.37541658
tp1678
a(I308
I6
F0.35384735
tp1679
a(I308
I7
F0.28920656
tp1680
aa(lp1681
(I309
I0
F0.0
tp1682
a(I309
I1
F0.29265884
tp1683
a(I309
I2
F0.30364656
tp1684
a(I309
I3
F0.16378823
tp1685
a(I309
I4
F0.25338784
tp1686
a(I309
I5
F0.27111438
tp1687
a(I309
I6
F0.06442068
tp1688
a(I309
I7
F0.0734318
tp1689
aa(lp1690
(I310
I0
F0.4116559
tp1691
a(I310
I1
F0.0431758
tp1692
a(I310
I2
F0.27078086
tp1693
a(I310
I3
F0.11057193
tp1694
a(I310
I4
F0.14985017
tp1695
a(I310
I5
F0.17796113
tp1696
a(I310
I6
F0.05946314
tp1697
a(I310
I7
F0.03960853
tp1698
aa(lp1699
(I311
I0
F0.36969244
tp1700
a(I311
I1
F0.036304183
tp1701
a(I311
I2
F0.31553733
tp1702
a(I311
I3
F0.08900013
tp1703
a(I311
I4
F0.14416735
tp1704
a(I311
I5
F0.23791477
tp1705
a(I311
I6
F0.09336584
tp1706
a(I311
I7
F0.058171563
tp1707
aa(lp1708
(I312
I0
F0.312641
tp1709
a(I312
I1
F0.22170652
tp1710
a(I312
I2
F0.20043749
tp1711
a(I312
I3
F0.103547655
tp1712
a(I312
I4
F0.09768493
tp1713
a(I312
I5
F0.3341067
tp1714
a(I312
I6
F0.0
tp1715
a(I312
I7
F0.030442175
tp1716
aa(lp1717
(I313
I0
F0.45922178
tp1718
a(I313
I1
F0.34384823
tp1719
a(I313
I2
F0.4131759
tp1720
aa(lp1721
(I314
I0
F0.37058425
tp1722
a(I314
I1
F0.4516712
tp1723
a(I314
I2
F0.3405489
tp1724
aa(lp1725
(I315
I0
F0.3720531
tp1726
a(I315
I1
F0.44368652
tp1727
a(I315
I2
F0.2862539
tp1728
aa(lp1729
(I316
I0
F0.13969988
tp1730
a(I316
I1
F0.06258675
tp1731
a(I316
I2
F0.1117484
tp1732
a(I316
I3
F0.0970846
tp1733
a(I316
I4
F0.2069144
tp1734
a(I316
I5
F0.2463124
tp1735
a(I316
I6
F0.44223619
tp1736
a(I316
I7
F0.023990616
tp1737
a(I316
I8
F0.375688
tp1738
a(I316
I9
F0.34473082
tp1739
a(I316
I10
F0.33878466
tp1740
a(I316
I11
F0.32796136
tp1741
aa(lp1742
(I317
I0
F0.08858222
tp1743
a(I317
I1
F0.0203339
tp1744
a(I317
I2
F0.1013554
tp1745
a(I317
I3
F0.078286774
tp1746
a(I317
I4
F0.11587701
tp1747
a(I317
I5
F0.094651915
tp1748
a(I317
I6
F0.3882961
tp1749
a(I317
I7
F0.0
tp1750
a(I317
I8
F0.10947529
tp1751
a(I317
I9
F0.045692082
tp1752
a(I317
I10
F0.06916748
tp1753
a(I317
I11
F0.08503253
tp1754
aa(lp1755
(I318
I0
F0.10502547
tp1756
a(I318
I1
F0.058933854
tp1757
a(I318
I2
F0.08567424
tp1758
a(I318
I3
F0.08475377
tp1759
a(I318
I4
F0.20482002
tp1760
a(I318
I5
F0.19228543
tp1761
a(I318
I6
F0.11202455
tp1762
a(I318
I7
F0.036138654
tp1763
a(I318
I8
F0.25624967
tp1764
a(I318
I9
F0.30962697
tp1765
a(I318
I10
F0.26541975
tp1766
a(I318
I11
F0.28420296
tp1767
aa(lp1768
(I319
I0
F0.08535764
tp1769
a(I319
I1
F0.0
tp1770
a(I319
I2
F0.16093743
tp1771
a(I319
I3
F0.036900926
tp1772
a(I319
I4
F0.09003773
tp1773
a(I319
I5
F0.02983965
tp1774
a(I319
I6
F0.082182705
tp1775
aa(lp1776
(I320
I0
F0.025192956
tp1777
a(I320
I1
F0.0
tp1778
a(I320
I2
F0.034458693
tp1779
a(I320
I3
F0.0
tp1780
a(I320
I4
F0.049861234
tp1781
a(I320
I5
F0.024090156
tp1782
a(I320
I6
F0.07004754
tp1783
aa(lp1784
(I321
I0
F0.11006334
tp1785
a(I321
I1
F0.0
tp1786
a(I321
I2
F0.09269541
tp1787
a(I321
I3
F0.037892926
tp1788
a(I321
I4
F0.115947165
tp1789
a(I321
I5
F0.0
tp1790
a(I321
I6
F0.14332648
tp1791
aa(lp1792
(I322
I0
F0.40791348
tp1793
a(I322
I1
F0.02913113
tp1794
a(I322
I2
F0.100514606
tp1795
a(I322
I3
F0.32756495
tp1796
a(I322
I4
F0.1375645
tp1797
a(I322
I5
F0.099996865
tp1798
aa(lp1799
(I323
I0
F0.21464558
tp1800
a(I323
I1
F0.0
tp1801
a(I323
I2
F0.0
tp1802
a(I323
I3
F0.30845368
tp1803
a(I323
I4
F0.037652597
tp1804
a(I323
I5
F0.030607838
tp1805
aa(lp1806
(I324
I0
F0.26324445
tp1807
a(I324
I1
F0.0
tp1808
a(I324
I2
F0.032890785
tp1809
a(I324
I3
F0.26630488
tp1810
a(I324
I4
F0.29843166
tp1811
a(I324
I5
F0.05031593
tp1812
aa(lp1813
(I325
I0
F0.33827347
tp1814
aa(lp1815
(I326
I0
F0.26127553
tp1816
aa(lp1817
(I327
I0
F0.3146672
tp1818
aa(lp1819
(I328
I0
F0.17499332
tp1820
aa(lp1821
(I329
I0
F0.0102463355
tp1822
aa(lp1823
(I330
I0
F0.12710609
tp1824
aa(lp1825
(I331
I0
F0.343297
tp1826
a(I331
I1
F0.25176284
tp1827
a(I331
I2
F0.109680444
tp1828
a(I331
I3
F0.36072865
tp1829
a(I331
I4
F0.31433854
tp1830
aa(lp1831
(I332
I0
F0.20270462
tp1832
a(I332
I1
F0.29698142
tp1833
a(I332
I2
F0.11441378
tp1834
a(I332
I3
F0.19440664
tp1835
a(I332
I4
F0.27455473
tp1836
aa(lp1837
(I333
I0
F0.26283336
tp1838
a(I333
I1
F0.27266595
tp1839
a(I333
I2
F0.18936116
tp1840
a(I333
I3
F0.32969537
tp1841
a(I333
I4
F0.20068194
tp1842
aa(lp1843
(I334
I0
F0.109346256
tp1844
a(I334
I1
F0.0
tp1845
a(I334
I2
F0.40653813
tp1846
a(I334
I3
F0.019056972
tp1847
aa(lp1848
(I335
I0
F0.08641446
tp1849
a(I335
I1
F0.0
tp1850
a(I335
I2
F0.28368524
tp1851
a(I335
I3
F0.0
tp1852
aa(lp1853
(I336
I0
F0.39753482
tp1854
a(I336
I1
F0.48695955
tp1855
a(I336
I2
F0.3594551
tp1856
a(I336
I3
F0.08660412
tp1857
aa(lp1858
(I337
I0
F0.0
tp1859
a(I337
I1
F0.2845804
tp1860
a(I337
I2
F0.6366728
tp1861
a(I337
I3
F0.35824475
tp1862
a(I337
I4
F0.17300245
tp1863
aa(lp1864
(I338
I0
F0.0
tp1865
a(I338
I1
F0.07444136
tp1866
a(I338
I2
F0.34236377
tp1867
a(I338
I3
F0.3040718
tp1868
a(I338
I4
F0.3770864
tp1869
aa(lp1870
(I339
I0
F0.13701382
tp1871
a(I339
I1
F0.08744638
tp1872
a(I339
I2
F0.29925558
tp1873
a(I339
I3
F0.15960811
tp1874
a(I339
I4
F0.40489104
tp1875
aa(lp1876
(I340
I0
F0.35846683
tp1877
a(I340
I1
F0.20789225
tp1878
a(I340
I2
F0.1722441
tp1879
aa(lp1880
(I341
I0
F0.118906945
tp1881
a(I341
I1
F0.089344524
tp1882
a(I341
I2
F0.076645866
tp1883
aa(lp1884
(I342
I0
F0.49217427
tp1885
a(I342
I1
F0.18828852
tp1886
a(I342
I2
F0.05530992
tp1887
aa(lp1888
(I343
I0
F0.36097518
tp1889
a(I343
I1
F0.14837322
tp1890
a(I343
I2
F0.22652715
tp1891
a(I343
I3
F0.18582681
tp1892
a(I343
I4
F0.5001953
tp1893
aa(lp1894
(I344
I0
F0.30333665
tp1895
a(I344
I1
F0.41866374
tp1896
a(I344
I2
F0.6381132
tp1897
a(I344
I3
F0.27710775
tp1898
a(I344
I4
F0.3304501
tp1899
aa(lp1900
(I345
I0
F0.096946925
tp1901
a(I345
I1
F0.10099971
tp1902
a(I345
I2
F0.46000564
tp1903
aa(lp1904
(I346
I0
F0.0656666
tp1905
a(I346
I1
F0.066187985
tp1906
a(I346
I2
F0.31642216
tp1907
aa(lp1908
(I347
I0
F0.08458433
tp1909
a(I347
I1
F0.076351225
tp1910
a(I347
I2
F0.32296392
tp1911
aa(lp1912
(I348
I0
F0.14798346
tp1913
a(I348
I1
F0.74296576
tp1914
a(I348
I2
F0.43050376
tp1915
a(I348
I3
F0.0
tp1916
a(I348
I4
F0.24397612
tp1917
a(I348
I5
F0.38404667
tp1918
a(I348
I6
F0.057834163
tp1919
a(I348
I7
F0.2687692
tp1920
aa(lp1921
(I349
I0
F0.30151868
tp1922
a(I349
I1
F0.27367547
tp1923
a(I349
I2
F0.24362631
tp1924
a(I349
I3
F0.0
tp1925
a(I349
I4
F0.33035612
tp1926
a(I349
I5
F0.3327928
tp1927
a(I349
I6
F0.05707784
tp1928
a(I349
I7
F0.21670957
tp1929
aa(lp1930
(I350
I0
F0.3218646
tp1931
a(I350
I1
F0.15045221
tp1932
a(I350
I2
F0.30655003
tp1933
a(I350
I3
F0.0
tp1934
a(I350
I4
F0.2796294
tp1935
a(I350
I5
F0.21502076
tp1936
a(I350
I6
F0.31296858
tp1937
a(I350
I7
F0.1086325
tp1938
aa(lp1939
(I351
I0
F0.10920832
tp1940
a(I351
I1
F0.5348311
tp1941
a(I351
I2
F0.34925652
tp1942
a(I351
I3
F0.381893
tp1943
a(I351
I4
F0.31383383
tp1944
a(I351
I5
F0.077867895
tp1945
a(I351
I6
F0.113941275
tp1946
a(I351
I7
F0.26253438
tp1947
a(I351
I8
F0.23890953
tp1948
a(I351
I9
F0.14844935
tp1949
a(I351
I10
F0.0
tp1950
aa(lp1951
(I352
I0
F0.121377446
tp1952
a(I352
I1
F0.28452715
tp1953
a(I352
I2
F0.3233276
tp1954
a(I352
I3
F0.2481888
tp1955
a(I352
I4
F0.46819118
tp1956
a(I352
I5
F0.06697793
tp1957
a(I352
I6
F0.1660636
tp1958
a(I352
I7
F0.29264268
tp1959
a(I352
I8
F0.10805596
tp1960
a(I352
I9
F0.21304296
tp1961
a(I352
I10
F0.0
tp1962
aa(lp1963
(I353
I0
F0.33504298
tp1964
a(I353
I1
F0.40876406
tp1965
a(I353
I2
F0.33417615
tp1966
a(I353
I3
F0.24550447
tp1967
a(I353
I4
F0.28046745
tp1968
a(I353
I5
F0.02010926
tp1969
a(I353
I6
F0.2791733
tp1970
a(I353
I7
F0.16569495
tp1971
a(I353
I8
F0.20585456
tp1972
a(I353
I9
F0.10320351
tp1973
a(I353
I10
F0.0
tp1974
aa(lp1975
(I354
I0
F0.16561812
tp1976
aa(lp1977
(I355
I0
F0.113226816
tp1978
aa(lp1979
(I356
I0
F0.28912085
tp1980
aa(lp1981
(I357
I0
F0.029499289
tp1982
a(I357
I1
F0.07508342
tp1983
a(I357
I2
F0.17548893
tp1984
a(I357
I3
F0.2950143
tp1985
aa(lp1986
(I358
I0
F0.045597773
tp1987
a(I358
I1
F0.06865373
tp1988
a(I358
I2
F0.41090038
tp1989
a(I358
I3
F0.18742087
tp1990
aa(lp1991
(I359
I0
F0.08358315
tp1992
a(I359
I1
F0.09662351
tp1993
a(I359
I2
F0.3378126
tp1994
a(I359
I3
F0.22735816
tp1995
aa(lp1996
(I360
I0
F0.33308873
tp1997
a(I360
I1
F0.09656031
tp1998
a(I360
I2
F0.10870708
tp1999
aa(lp2000
(I361
I0
F0.3541305
tp2001
a(I361
I1
F0.029174859
tp2002
a(I361
I2
F0.055607304
tp2003
aa(lp2004
(I362
I0
F0.3292336
tp2005
a(I362
I1
F0.24153548
tp2006
a(I362
I2
F0.08443596
tp2007
aa(lp2008
(I363
I0
F0.19278857
tp2009
a(I363
I1
F0.83705187
tp2010
a(I363
I2
F0.0922528
tp2011
a(I363
I3
F0.24479453
tp2012
aa(lp2013
(I364
I0
F0.23510039
tp2014
a(I364
I1
F0.3023554
tp2015
a(I364
I2
F0.04492943
tp2016
a(I364
I3
F0.08607509
tp2017
aa(lp2018
(I365
I0
F0.23724419
tp2019
a(I365
I1
F0.14901696
tp2020
a(I365
I2
F0.0
tp2021
a(I365
I3
F0.07740623
tp2022
aa(lp2023
(I366
I0
F0.16972645
tp2024
a(I366
I1
F0.17617008
tp2025
a(I366
I2
F0.19548903
tp2026
a(I366
I3
F0.11813592
tp2027
a(I366
I4
F0.23971996
tp2028
a(I366
I5
F0.3559804
tp2029
a(I366
I6
F0.03388798
tp2030
aa(lp2031
(I367
I0
F0.14721431
tp2032
a(I367
I1
F0.15172409
tp2033
a(I367
I2
F0.12476088
tp2034
a(I367
I3
F0.047599345
tp2035
a(I367
I4
F0.045189332
tp2036
a(I367
I5
F0.26659864
tp2037
a(I367
I6
F0.035852592
tp2038
aa(lp2039
(I368
I0
F0.44108224
tp2040
a(I368
I1
F0.24632321
tp2041
a(I368
I2
F0.23543182
tp2042
a(I368
I3
F0.07618453
tp2043
a(I368
I4
F0.29528168
tp2044
a(I368
I5
F0.29777366
tp2045
a(I368
I6
F0.028906465
tp2046
aa(lp2047
(I369
I0
F0.28309208
tp2048
a(I369
I1
F0.29676315
tp2049
a(I369
I2
F0.11589444
tp2050
a(I369
I3
F0.12154608
tp2051
aa(lp2052
(I370
I0
F0.3253748
tp2053
a(I370
I1
F0.28315493
tp2054
a(I370
I2
F0.10458097
tp2055
a(I370
I3
F0.11285236
tp2056
aa(lp2057
(I371
I0
F0.32890016
tp2058
a(I371
I1
F0.2883204
tp2059
a(I371
I2
F0.12033109
tp2060
a(I371
I3
F0.33008194
tp2061
a(I371
I4
F0.26174638
tp2062
aa(lp2063
(I372
I0
F0.27373323
tp2064
a(I372
I1
F0.3820293
tp2065
a(I372
I2
F0.10746738
tp2066
a(I372
I3
F0.31002644
tp2067
a(I372
I4
F0.25339147
tp2068
aa(lp2069
(I373
I0
F0.3067425
tp2070
a(I373
I1
F0.30599517
tp2071
a(I373
I2
F0.1934424
tp2072
a(I373
I3
F0.5145809
tp2073
a(I373
I4
F0.1925325
tp2074
aa(lp2075
(I374
I0
F0.033986002
tp2076
a(I374
I1
F0.30352807
tp2077
a(I374
I2
F0.21953247
tp2078
a(I374
I3
F0.3015133
tp2079
aa(lp2080
(I375
I0
F0.07318066
tp2081
a(I375
I1
F0.13517396
tp2082
a(I375
I2
F0.11905706
tp2083
a(I375
I3
F0.18547851
tp2084
aa(lp2085
(I376
I0
F0.14390834
tp2086
a(I376
I1
F0.36501312
tp2087
a(I376
I2
F0.1219757
tp2088
a(I376
I3
F0.21566324
tp2089
aa(lp2090
(I377
I0
F0.033986002
tp2091
a(I377
I1
F0.4399093
tp2092
a(I377
I2
F0.13406533
tp2093
a(I377
I3
F0.27741498
tp2094
aa(lp2095
(I378
I0
F0.07318066
tp2096
a(I378
I1
F0.2850122
tp2097
a(I378
I2
F0.0
tp2098
a(I378
I3
F0.10275364
tp2099
aa(lp2100
(I379
I0
F0.19263172
tp2101
a(I379
I1
F0.1795333
tp2102
a(I379
I2
F0.11032755
tp2103
a(I379
I3
F0.24310267
tp2104
a(I379
I4
F0.32502076
tp2105
a(I379
I5
F0.32247576
tp2106
a(I379
I6
F0.32072255
tp2107
a(I379
I7
F0.29720083
tp2108
a(I379
I8
F0.021189451
tp2109
a(I379
I9
F0.033284333
tp2110
a(I379
I10
F0.056851562
tp2111
a(I379
I11
F0.0
tp2112
a(I379
I12
F0.08097072
tp2113
a(I379
I13
F0.10787566
tp2114
aa(lp2115
(I380
I0
F0.11939381
tp2116
a(I380
I1
F0.23783033
tp2117
a(I380
I2
F0.27458423
tp2118
a(I380
I3
F0.28186822
tp2119
a(I380
I4
F0.23649636
tp2120
a(I380
I5
F0.12880476
tp2121
a(I380
I6
F0.43393728
tp2122
a(I380
I7
F0.06375766
tp2123
a(I380
I8
F0.02580069
tp2124
a(I380
I9
F0.20407705
tp2125
a(I380
I10
F0.041161675
tp2126
a(I380
I11
F0.0
tp2127
a(I380
I12
F0.1300888
tp2128
a(I380
I13
F0.23617479
tp2129
aa(lp2130
(I381
I0
F0.1457963
tp2131
a(I381
I1
F0.31490958
tp2132
a(I381
I2
F0.2482917
tp2133
a(I381
I3
F0.2959509
tp2134
a(I381
I4
F0.31901464
tp2135
a(I381
I5
F0.09532155
tp2136
a(I381
I6
F0.19510442
tp2137
a(I381
I7
F0.042779267
tp2138
a(I381
I8
F0.019365747
tp2139
a(I381
I9
F0.081639014
tp2140
a(I381
I10
F0.056086242
tp2141
a(I381
I11
F0.0
tp2142
a(I381
I12
F0.0676314
tp2143
a(I381
I13
F0.2657951
tp2144
aa(lp2145
(I382
I0
F0.23986647
tp2146
a(I382
I1
F0.32393447
tp2147
a(I382
I2
F0.48857573
tp2148
a(I382
I3
F0.20462428
tp2149
aa(lp2150
(I383
I0
F0.27720693
tp2151
a(I383
I1
F0.19022171
tp2152
a(I383
I2
F0.24532418
tp2153
a(I383
I3
F0.033916596
tp2154
aa(lp2155
(I384
I0
F0.26447964
tp2156
a(I384
I1
F0.3749011
tp2157
a(I384
I2
F0.31153053
tp2158
a(I384
I3
F0.13401386
tp2159
aa(lp2160
(I385
I0
F0.29847777
tp2161
a(I385
I1
F0.3655397
tp2162
a(I385
I2
F0.33494157
tp2163
a(I385
I3
F0.31467417
tp2164
a(I385
I4
F0.21998833
tp2165
a(I385
I5
F0.2329445
tp2166
a(I385
I6
F0.17832257
tp2167
a(I385
I7
F0.37027258
tp2168
a(I385
I8
F0.31382346
tp2169
a(I385
I9
F0.2883751
tp2170
aa(lp2171
(I386
I0
F0.35862616
tp2172
a(I386
I1
F0.2931279
tp2173
a(I386
I2
F0.24286863
tp2174
a(I386
I3
F0.4005193
tp2175
a(I386
I4
F0.24289224
tp2176
a(I386
I5
F0.3312763
tp2177
a(I386
I6
F0.11304716
tp2178
a(I386
I7
F0.42316985
tp2179
a(I386
I8
F0.2980385
tp2180
a(I386
I9
F0.3074663
tp2181
aa(lp2182
(I387
I0
F0.23541684
tp2183
a(I387
I1
F0.34911492
tp2184
a(I387
I2
F0.25003254
tp2185
a(I387
I3
F0.25583667
tp2186
a(I387
I4
F0.27707717
tp2187
a(I387
I5
F0.19059838
tp2188
a(I387
I6
F0.17855847
tp2189
a(I387
I7
F0.1846087
tp2190
a(I387
I8
F0.14183591
tp2191
a(I387
I9
F0.24620564
tp2192
aa(lp2193
(I388
I0
F0.4152812
tp2194
a(I388
I1
F0.15528516
tp2195
aa(lp2196
(I389
I0
F0.34776193
tp2197
a(I389
I1
F0.117224835
tp2198
aa(lp2199
(I390
I0
F0.28641477
tp2200
a(I390
I1
F0.23458564
tp2201
aa(lp2202
(I391
I0
F0.09053754
tp2203
a(I391
I1
F0.069871776
tp2204
a(I391
I2
F0.1111253
tp2205
a(I391
I3
F0.62152076
tp2206
a(I391
I4
F0.1511809
tp2207
a(I391
I5
F0.11646161
tp2208
a(I391
I6
F0.037551507
tp2209
aa(lp2210
(I392
I0
F0.2875843
tp2211
a(I392
I1
F0.06657607
tp2212
a(I392
I2
F0.28905654
tp2213
a(I392
I3
F0.36396682
tp2214
a(I392
I4
F0.057226423
tp2215
a(I392
I5
F0.22781488
tp2216
a(I392
I6
F0.07964575
tp2217
aa(lp2218
(I393
I0
F0.2886938
tp2219
a(I393
I1
F0.12158297
tp2220
a(I393
I2
F0.26855198
tp2221
a(I393
I3
F0.31102347
tp2222
a(I393
I4
F0.0840725
tp2223
a(I393
I5
F0.24503575
tp2224
a(I393
I6
F0.058144107
tp2225
aa(lp2226
(I394
I0
F0.42217228
tp2227
aa(lp2228
(I395
I0
F0.3734084
tp2229
aa(lp2230
(I396
I0
F0.09385151
tp2231
a(I396
I1
F0.0
tp2232
a(I396
I2
F0.05776703
tp2233
a(I396
I3
F0.03700611
tp2234
aa(lp2235
(I397
I0
F0.07856414
tp2236
a(I397
I1
F0.0
tp2237
a(I397
I2
F0.052253366
tp2238
a(I397
I3
F0.093667716
tp2239
aa(lp2240
(I398
I0
F0.0
tp2241
a(I398
I1
F0.0
tp2242
a(I398
I2
F0.034507807
tp2243
a(I398
I3
F0.0434606
tp2244
aa(lp2245
(I399
I0
F0.53710294
tp2246
a(I399
I1
F0.4858851
tp2247
a(I399
I2
F0.3605014
tp2248
aa(lp2249
(I400
I0
F0.3361226
tp2250
a(I400
I1
F0.5528728
tp2251
a(I400
I2
F0.436498
tp2252
aa(lp2253
(I401
I0
F0.33380023
tp2254
a(I401
I1
F0.30873793
tp2255
a(I401
I2
F0.2847258
tp2256
aa(lp2257
(I402
I0
F0.35417324
tp2258
a(I402
I1
F0.46354964
tp2259
a(I402
I2
F0.29201302
tp2260
aa(lp2261
(I403
I0
F0.5307577
tp2262
a(I403
I1
F0.31847537
tp2263
a(I403
I2
F0.23654772
tp2264
aa(lp2265
(I404
I0
F0.44550592
tp2266
a(I404
I1
F0.23498502
tp2267
a(I404
I2
F0.26961604
tp2268
aa(lp2269
(I405
I0
F0.20739196
tp2270
a(I405
I1
F0.12836504
tp2271
a(I405
I2
F0.0
tp2272
a(I405
I3
F0.19067824
tp2273
a(I405
I4
F0.3911838
tp2274
a(I405
I5
F0.21725905
tp2275
a(I405
I6
F0.46680325
tp2276
aa(lp2277
(I406
I0
F0.109143645
tp2278
a(I406
I1
F0.07969465
tp2279
a(I406
I2
F0.0
tp2280
a(I406
I3
F0.017180562
tp2281
a(I406
I4
F0.29760495
tp2282
a(I406
I5
F0.22389756
tp2283
a(I406
I6
F0.35752204
tp2284
aa(lp2285
(I407
I0
F0.20103672
tp2286
a(I407
I1
F0.15273617
tp2287
a(I407
I2
F0.0
tp2288
a(I407
I3
F0.075860314
tp2289
a(I407
I4
F0.29191652
tp2290
a(I407
I5
F0.11501407
tp2291
a(I407
I6
F0.28747532
tp2292
aa(lp2293
(I408
I0
F0.1635243
tp2294
a(I408
I1
F0.15362282
tp2295
a(I408
I2
F0.28272918
tp2296
aa(lp2297
(I409
I0
F0.065295
tp2298
a(I409
I1
F0.10672869
tp2299
a(I409
I2
F0.13466822
tp2300
aa(lp2301
(I410
I0
F0.17376742
tp2302
a(I410
I1
F0.21214253
tp2303
a(I410
I2
F0.21166626
tp2304
aa(lp2305
(I411
I0
F0.40155998
tp2306
a(I411
I1
F0.36065456
tp2307
aa(lp2308
(I412
I0
F0.42669657
tp2309
a(I412
I1
F0.38711634
tp2310
aa(lp2311
(I413
I0
F0.32255337
tp2312
a(I413
I1
F0.33355087
tp2313
aa(lp2314
(I414
I0
F0.059754778
tp2315
a(I414
I1
F0.06245543
tp2316
a(I414
I2
F0.13565269
tp2317
a(I414
I3
F0.13625215
tp2318
aa(lp2319
(I415
I0
F0.052767847
tp2320
a(I415
I1
F0.06177387
tp2321
a(I415
I2
F0.27884093
tp2322
a(I415
I3
F0.03716496
tp2323
aa(lp2324
(I416
I0
F0.072383516
tp2325
a(I416
I1
F0.02887899
tp2326
a(I416
I2
F0.29105556
tp2327
a(I416
I3
F0.06834432
tp2328
aa(lp2329
(I417
I0
F0.23387365
tp2330
a(I417
I1
F0.20107599
tp2331
a(I417
I2
F0.49033144
tp2332
a(I417
I3
F0.27049887
tp2333
a(I417
I4
F0.17989305
tp2334
aa(lp2335
(I418
I0
F0.15431118
tp2336
a(I418
I1
F0.2173915
tp2337
a(I418
I2
F0.24877378
tp2338
a(I418
I3
F0.21653853
tp2339
a(I418
I4
F0.104007125
tp2340
aa(lp2341
(I419
I0
F0.26336887
tp2342
a(I419
I1
F0.34112033
tp2343
aa(lp2344
(I420
I0
F0.32103404
tp2345
a(I420
I1
F0.23394401
tp2346
aa(lp2347
(I421
I0
F0.19269145
tp2348
a(I421
I1
F0.2910555
tp2349
aa(lp2350
(I422
I0
F0.343657
tp2351
a(I422
I1
F0.39573583
tp2352
a(I422
I2
F0.42455962
tp2353
a(I422
I3
F0.06729663
tp2354
a(I422
I4
F0.25048867
tp2355
aa(lp2356
(I423
I0
F0.26944146
tp2357
a(I423
I1
F0.48066664
tp2358
a(I423
I2
F0.33425748
tp2359
a(I423
I3
F0.08043204
tp2360
a(I423
I4
F0.22557543
tp2361
aa(lp2362
(I424
I0
F0.14306252
tp2363
a(I424
I1
F0.26666218
tp2364
a(I424
I2
F0.2813197
tp2365
a(I424
I3
F0.043903843
tp2366
a(I424
I4
F0.14998586
tp2367
aa(lp2368
(I425
I0
F0.11986554
tp2369
a(I425
I1
F0.27142316
tp2370
a(I425
I2
F0.35061002
tp2371
aa(lp2372
(I426
I0
F0.3586393
tp2373
a(I426
I1
F0.39768243
tp2374
a(I426
I2
F0.28153336
tp2375
aa(lp2376
(I427
I0
F0.29086357
tp2377
a(I427
I1
F0.27418786
tp2378
a(I427
I2
F0.32948568
tp2379
aa(lp2380
(I428
I0
F0.29196104
tp2381
a(I428
I1
F0.29948378
tp2382
aa(lp2383
(I429
I0
F0.31660697
tp2384
a(I429
I1
F0.12505038
tp2385
aa(lp2386
(I430
I0
F0.30965847
tp2387
a(I430
I1
F0.46709642
tp2388
aa(lp2389
(I431
I0
F0.13346967
tp2390
a(I431
I1
F0.3720364
tp2391
a(I431
I2
F0.1705965
tp2392
a(I431
I3
F0.10338106
tp2393
a(I431
I4
F0.10432273
tp2394
a(I431
I5
F0.2560763
tp2395
a(I431
I6
F0.2623116
tp2396
a(I431
I7
F0.123446815
tp2397
aa(lp2398
(I432
I0
F0.28240627
tp2399
a(I432
I1
F0.39428452
tp2400
a(I432
I2
F0.32513198
tp2401
a(I432
I3
F0.10901727
tp2402
a(I432
I4
F0.072545104
tp2403
a(I432
I5
F0.29872003
tp2404
a(I432
I6
F0.35806426
tp2405
a(I432
I7
F0.108747885
tp2406
aa(lp2407
(I433
I0
F0.2339631
tp2408
a(I433
I1
F0.41031733
tp2409
a(I433
I2
F0.19212078
tp2410
a(I433
I3
F0.049738765
tp2411
a(I433
I4
F0.12800212
tp2412
a(I433
I5
F0.43074447
tp2413
a(I433
I6
F0.2824477
tp2414
a(I433
I7
F0.15157846
tp2415
aa(lp2416
(I434
I0
F0.19633195
tp2417
aa(lp2418
(I435
I0
F0.09045654
tp2419
aa(lp2420
(I436
I0
F0.28339797
tp2421
aa(lp2422
(I437
I0
F0.27069506
tp2423
aa(lp2424
(I438
I0
F0.20367537
tp2425
aa(lp2426
(I439
I0
F0.35519487
tp2427
aa(lp2428
(I440
I0
F0.576495
tp2429
aa(lp2430
(I441
I0
F0.3030527
tp2431
aa(lp2432
(I442
I0
F0.16796859
tp2433
a(I442
I1
F0.14966191
tp2434
a(I442
I2
F0.07951276
tp2435
a(I442
I3
F0.17074096
tp2436
a(I442
I4
F0.203053
tp2437
a(I442
I5
F0.14402947
tp2438
a(I442
I6
F0.08240184
tp2439
a(I442
I7
F0.09567725
tp2440
a(I442
I8
F0.13807105
tp2441
a(I442
I9
F0.149958
tp2442
a(I442
I10
F0.17030257
tp2443
aa(lp2444
(I443
I0
F0.061776794
tp2445
a(I443
I1
F0.02223779
tp2446
a(I443
I2
F0.025727758
tp2447
a(I443
I3
F0.010209111
tp2448
a(I443
I4
F0.115766756
tp2449
a(I443
I5
F0.07982405
tp2450
a(I443
I6
F0.05933158
tp2451
a(I443
I7
F0.12213602
tp2452
a(I443
I8
F0.0
tp2453
a(I443
I9
F0.09453752
tp2454
a(I443
I10
F0.050854016
tp2455
aa(lp2456
(I444
I0
F0.29229128
tp2457
a(I444
I1
F0.0874114
tp2458
a(I444
I2
F0.24926472
tp2459
a(I444
I3
F0.2681527
tp2460
a(I444
I4
F0.13794087
tp2461
a(I444
I5
F0.1547189
tp2462
a(I444
I6
F0.060522523
tp2463
a(I444
I7
F0.07489581
tp2464
a(I444
I8
F0.04708885
tp2465
a(I444
I9
F0.42493242
tp2466
a(I444
I10
F0.07528237
tp2467
aa(lp2468
(I445
I0
F0.3442723
tp2469
a(I445
I1
F0.32170638
tp2470
a(I445
I2
F0.25404212
tp2471
a(I445
I3
F0.26923895
tp2472
aa(lp2473
(I446
I0
F0.24129154
tp2474
a(I446
I1
F0.2564067
tp2475
a(I446
I2
F0.27329487
tp2476
a(I446
I3
F0.07166505
tp2477
aa(lp2478
(I447
I0
F0.30700612
tp2479
a(I447
I1
F0.29111564
tp2480
a(I447
I2
F0.23942687
tp2481
a(I447
I3
F0.043083977
tp2482
aa(lp2483
(I448
I0
F0.31595066
tp2484
a(I448
I1
F0.0900367
tp2485
aa(lp2486
(I449
I0
F0.22886
tp2487
a(I449
I1
F0.060126655
tp2488
aa(lp2489
(I450
I0
F0.3391534
tp2490
a(I450
I1
F0.1230646
tp2491
aa(lp2492
(I451
I0
F0.21306716
tp2493
a(I451
I1
F0.16195534
tp2494
a(I451
I2
F0.094705425
tp2495
a(I451
I3
F0.14177601
tp2496
a(I451
I4
F0.0
tp2497
a(I451
I5
F0.14864977
tp2498
a(I451
I6
F0.17063835
tp2499
a(I451
I7
F0.10293349
tp2500
a(I451
I8
F0.14665125
tp2501
a(I451
I9
F0.39163765
tp2502
a(I451
I10
F0.22059937
tp2503
aa(lp2504
(I452
I0
F0.2275909
tp2505
a(I452
I1
F0.05559337
tp2506
a(I452
I2
F0.0
tp2507
a(I452
I3
F0.12372411
tp2508
a(I452
I4
F0.0
tp2509
a(I452
I5
F0.16099702
tp2510
a(I452
I6
F0.15878788
tp2511
a(I452
I7
F0.07471594
tp2512
a(I452
I8
F0.09004939
tp2513
a(I452
I9
F0.29496738
tp2514
a(I452
I10
F0.2400427
tp2515
aa(lp2516
(I453
I0
F0.2162884
tp2517
a(I453
I1
F0.1761781
tp2518
a(I453
I2
F0.23659867
tp2519
a(I453
I3
F0.08794785
tp2520
a(I453
I4
F0.0
tp2521
a(I453
I5
F0.08237434
tp2522
a(I453
I6
F0.13784176
tp2523
a(I453
I7
F0.08202312
tp2524
a(I453
I8
F0.3075651
tp2525
a(I453
I9
F0.21557537
tp2526
a(I453
I10
F0.16121145
tp2527
aa(lp2528
(I454
I0
F0.14903823
tp2529
a(I454
I1
F0.13174564
tp2530
a(I454
I2
F0.41702962
tp2531
a(I454
I3
F0.78934675
tp2532
a(I454
I4
F0.052797753
tp2533
a(I454
I5
F0.35130182
tp2534
aa(lp2535
(I455
I0
F0.24765787
tp2536
a(I455
I1
F0.14411794
tp2537
a(I455
I2
F0.48310655
tp2538
a(I455
I3
F0.19572145
tp2539
a(I455
I4
F0.19435279
tp2540
a(I455
I5
F0.26235163
tp2541
aa(lp2542
(I456
I0
F0.20701998
tp2543
a(I456
I1
F0.074361876
tp2544
a(I456
I2
F0.38779116
tp2545
a(I456
I3
F0.117788054
tp2546
a(I456
I4
F0.17897347
tp2547
a(I456
I5
F0.24711235
tp2548
aa(lp2549
(I457
I0
F0.19113718
tp2550
a(I457
I1
F0.46176895
tp2551
a(I457
I2
F0.3328498
tp2552
a(I457
I3
F0.104688354
tp2553
a(I457
I4
F0.33992612
tp2554
aa(lp2555
(I458
I0
F0.2842136
tp2556
a(I458
I1
F0.18901871
tp2557
a(I458
I2
F0.12204036
tp2558
a(I458
I3
F0.2108044
tp2559
a(I458
I4
F0.2586228
tp2560
aa(lp2561
(I459
I0
F0.28082323
tp2562
a(I459
I1
F0.21449894
tp2563
a(I459
I2
F0.19688474
tp2564
a(I459
I3
F0.20662363
tp2565
a(I459
I4
F0.32104418
tp2566
aa(lp2567
(I460
I0
F0.12405546
tp2568
a(I460
I1
F0.057657503
tp2569
a(I460
I2
F0.116125464
tp2570
a(I460
I3
F0.3367473
tp2571
aa(lp2572
(I461
I0
F0.19759668
tp2573
a(I461
I1
F0.2009778
tp2574
a(I461
I2
F0.25186238
tp2575
a(I461
I3
F0.08027099
tp2576
aa(lp2577
(I462
I0
F0.1085046
tp2578
a(I462
I1
F0.08027041
tp2579
a(I462
I2
F0.10072745
tp2580
a(I462
I3
F0.16688088
tp2581
aa(lp2582
(I463
I0
F0.19113718
tp2583
a(I463
I1
F0.46176895
tp2584
a(I463
I2
F0.3328498
tp2585
a(I463
I3
F0.104688354
tp2586
a(I463
I4
F0.33992612
tp2587
aa(lp2588
(I464
I0
F0.2842136
tp2589
a(I464
I1
F0.18901871
tp2590
a(I464
I2
F0.12204036
tp2591
a(I464
I3
F0.2108044
tp2592
a(I464
I4
F0.2586228
tp2593
aa(lp2594
(I465
I0
F0.28082323
tp2595
a(I465
I1
F0.21449894
tp2596
a(I465
I2
F0.19688474
tp2597
a(I465
I3
F0.20662363
tp2598
a(I465
I4
F0.32104418
tp2599
aa(lp2600
(I466
I0
F0.31280333
tp2601
a(I466
I1
F0.0
tp2602
a(I466
I2
F0.2942942
tp2603
a(I466
I3
F0.3034287
tp2604
a(I466
I4
F0.24070653
tp2605
a(I466
I5
F0.7401575
tp2606
aa(lp2607
(I467
I0
F0.25986382
tp2608
a(I467
I1
F0.035018828
tp2609
a(I467
I2
F0.055380452
tp2610
a(I467
I3
F0.2460025
tp2611
a(I467
I4
F0.057222787
tp2612
a(I467
I5
F0.21105163
tp2613
aa(lp2614
(I468
I0
F0.29708683
tp2615
a(I468
I1
F0.0
tp2616
a(I468
I2
F0.11465343
tp2617
a(I468
I3
F0.17603482
tp2618
a(I468
I4
F0.1478929
tp2619
a(I468
I5
F0.12832493
tp2620
aa(lp2621
(I469
I0
F0.3979751
tp2622
a(I469
I1
F0.21264733
tp2623
a(I469
I2
F0.18557332
tp2624
a(I469
I3
F0.29839483
tp2625
a(I469
I4
F0.054309577
tp2626
a(I469
I5
F0.06637282
tp2627
a(I469
I6
F0.38023514
tp2628
a(I469
I7
F0.27504024
tp2629
a(I469
I8
F0.18359593
tp2630
a(I469
I9
F0.27021402
tp2631
a(I469
I10
F0.20723668
tp2632
a(I469
I11
F0.039070036
tp2633
a(I469
I12
F0.0903714
tp2634
aa(lp2635
(I470
I0
F0.24520203
tp2636
a(I470
I1
F0.081370056
tp2637
a(I470
I2
F0.06569933
tp2638
a(I470
I3
F0.0978999
tp2639
a(I470
I4
F0.069583856
tp2640
a(I470
I5
F0.05420099
tp2641
a(I470
I6
F0.3554724
tp2642
a(I470
I7
F0.26080668
tp2643
a(I470
I8
F0.086235404
tp2644
a(I470
I9
F0.21460879
tp2645
a(I470
I10
F0.14250137
tp2646
a(I470
I11
F0.025739206
tp2647
a(I470
I12
F0.011251335
tp2648
aa(lp2649
(I471
I0
F0.29886273
tp2650
a(I471
I1
F0.10255516
tp2651
a(I471
I2
F0.08133859
tp2652
a(I471
I3
F0.21820273
tp2653
a(I471
I4
F0.0959376
tp2654
a(I471
I5
F0.22992699
tp2655
a(I471
I6
F0.14444503
tp2656
a(I471
I7
F0.22099411
tp2657
a(I471
I8
F0.1595663
tp2658
a(I471
I9
F0.2540112
tp2659
a(I471
I10
F0.1740448
tp2660
a(I471
I11
F0.3826607
tp2661
a(I471
I12
F0.09778717
tp2662
aa(lp2663
(I472
I0
F0.110536344
tp2664
a(I472
I1
F0.31310564
tp2665
a(I472
I2
F0.39101973
tp2666
a(I472
I3
F0.0
tp2667
a(I472
I4
F0.48140904
tp2668
a(I472
I5
F0.28676084
tp2669
a(I472
I6
F0.25221506
tp2670
a(I472
I7
F0.13236864
tp2671
a(I472
I8
F0.2769822
tp2672
a(I472
I9
F0.34448573
tp2673
a(I472
I10
F0.119457275
tp2674
a(I472
I11
F0.26175702
tp2675
a(I472
I12
F0.32888857
tp2676
a(I472
I13
F0.25129658
tp2677
aa(lp2678
(I473
I0
F0.09042011
tp2679
a(I473
I1
F0.24655545
tp2680
a(I473
I2
F0.31349328
tp2681
a(I473
I3
F0.0
tp2682
a(I473
I4
F0.27074534
tp2683
a(I473
I5
F0.07337564
tp2684
a(I473
I6
F0.24818484
tp2685
a(I473
I7
F0.079361945
tp2686
a(I473
I8
F0.45839277
tp2687
a(I473
I9
F0.25512105
tp2688
a(I473
I10
F0.059966568
tp2689
a(I473
I11
F0.32761288
tp2690
a(I473
I12
F0.28251573
tp2691
a(I473
I13
F0.028665435
tp2692
aa(lp2693
(I474
I0
F0.32918423
tp2694
a(I474
I1
F0.24801697
tp2695
a(I474
I2
F0.2847491
tp2696
a(I474
I3
F0.0
tp2697
a(I474
I4
F0.28838322
tp2698
a(I474
I5
F0.1867248
tp2699
a(I474
I6
F0.23992816
tp2700
a(I474
I7
F0.13978258
tp2701
a(I474
I8
F0.20695293
tp2702
a(I474
I9
F0.20906577
tp2703
a(I474
I10
F0.06537172
tp2704
a(I474
I11
F0.1876892
tp2705
a(I474
I12
F0.20924251
tp2706
a(I474
I13
F0.024073644
tp2707
aa(lp2708
(I475
I0
F0.11598619
tp2709
a(I475
I1
F0.25785485
tp2710
a(I475
I2
F0.3287499
tp2711
a(I475
I3
F0.44900793
tp2712
a(I475
I4
F0.0975576
tp2713
a(I475
I5
F0.091340445
tp2714
a(I475
I6
F0.15604094
tp2715
a(I475
I7
F0.0652361
tp2716
a(I475
I8
F0.32802457
tp2717
aa(lp2718
(I476
I0
F0.081529796
tp2719
a(I476
I1
F0.06525594
tp2720
a(I476
I2
F0.3623978
tp2721
a(I476
I3
F0.3068671
tp2722
a(I476
I4
F0.08070296
tp2723
a(I476
I5
F0.078266546
tp2724
a(I476
I6
F0.10156547
tp2725
a(I476
I7
F0.02153299
tp2726
a(I476
I8
F0.06802436
tp2727
aa(lp2728
(I477
I0
F0.13293259
tp2729
a(I477
I1
F0.1694686
tp2730
a(I477
I2
F0.3170764
tp2731
a(I477
I3
F0.43519253
tp2732
a(I477
I4
F0.0964123
tp2733
a(I477
I5
F0.07442295
tp2734
a(I477
I6
F0.12960222
tp2735
a(I477
I7
F0.03025798
tp2736
a(I477
I8
F0.29710618
tp2737
aa(lp2738
(I478
I0
F0.2683779
tp2739
aa(lp2740
(I479
I0
F0.2898309
tp2741
aa(lp2742
(I480
I0
F0.37051663
tp2743
aa(lp2744
(I481
I0
F0.15808898
tp2745
a(I481
I1
F0.03906991
tp2746
a(I481
I2
F0.31491682
tp2747
a(I481
I3
F0.0428879
tp2748
a(I481
I4
F0.29096627
tp2749
a(I481
I5
F0.3545793
tp2750
a(I481
I6
F0.17723727
tp2751
a(I481
I7
F0.3579273
tp2752
a(I481
I8
F0.13609609
tp2753
a(I481
I9
F0.59833276
tp2754
a(I481
I10
F0.030426472
tp2755
a(I481
I11
F0.0
tp2756
aa(lp2757
(I482
I0
F0.27782786
tp2758
a(I482
I1
F0.097850695
tp2759
a(I482
I2
F0.06541929
tp2760
a(I482
I3
F0.10016746
tp2761
a(I482
I4
F0.2474115
tp2762
a(I482
I5
F0.2927227
tp2763
a(I482
I6
F0.22934075
tp2764
a(I482
I7
F0.09329023
tp2765
a(I482
I8
F0.08332194
tp2766
a(I482
I9
F0.29522184
tp2767
a(I482
I10
F0.067008
tp2768
a(I482
I11
F0.0
tp2769
aa(lp2770
(I483
I0
F0.22998892
tp2771
a(I483
I1
F0.030179912
tp2772
a(I483
I2
F0.14844505
tp2773
a(I483
I3
F0.19406347
tp2774
a(I483
I4
F0.1336304
tp2775
a(I483
I5
F0.31633157
tp2776
a(I483
I6
F0.18013123
tp2777
a(I483
I7
F0.2105818
tp2778
a(I483
I8
F0.10041213
tp2779
a(I483
I9
F0.28898197
tp2780
a(I483
I10
F0.010912314
tp2781
a(I483
I11
F0.0
tp2782
aa(lp2783
(I484
I0
F0.10993334
tp2784
a(I484
I1
F0.06448999
tp2785
a(I484
I2
F0.2447982
tp2786
aa(lp2787
(I485
I0
F0.10882726
tp2788
a(I485
I1
F0.04880645
tp2789
a(I485
I2
F0.091233715
tp2790
aa(lp2791
(I486
I0
F0.17200324
tp2792
a(I486
I1
F0.05881766
tp2793
a(I486
I2
F0.13318448
tp2794
aa(lp2795
(I487
I0
F0.06521988
tp2796
a(I487
I1
F0.39417735
tp2797
a(I487
I2
F0.03201044
tp2798
a(I487
I3
F0.29268226
tp2799
aa(lp2800
(I488
I0
F0.08998597
tp2801
a(I488
I1
F0.08526108
tp2802
a(I488
I2
F0.027155705
tp2803
a(I488
I3
F0.40861148
tp2804
aa(lp2805
(I489
I0
F0.07536024
tp2806
a(I489
I1
F0.081601076
tp2807
a(I489
I2
F0.041091666
tp2808
a(I489
I3
F0.25393343
tp2809
aa(lp2810
(I490
I0
F0.14838246
tp2811
a(I490
I1
F0.1803176
tp2812
a(I490
I2
F0.0
tp2813
a(I490
I3
F0.41193494
tp2814
a(I490
I4
F0.0
tp2815
aa(lp2816
(I491
I0
F0.15616068
tp2817
a(I491
I1
F0.08262431
tp2818
a(I491
I2
F0.0
tp2819
a(I491
I3
F0.2364194
tp2820
a(I491
I4
F0.0
tp2821
aa(lp2822
(I492
I0
F0.3183239
tp2823
a(I492
I1
F0.17680757
tp2824
a(I492
I2
F0.0
tp2825
a(I492
I3
F0.44774935
tp2826
a(I492
I4
F0.0
tp2827
aa(lp2828
(I493
I0
F0.045071244
tp2829
a(I493
I1
F0.0
tp2830
a(I493
I2
F0.31585568
tp2831
a(I493
I3
F0.3354859
tp2832
a(I493
I4
F0.09942115
tp2833
aa(lp2834
(I494
I0
F0.07147434
tp2835
a(I494
I1
F0.17509481
tp2836
a(I494
I2
F0.2406828
tp2837
a(I494
I3
F0.1034151
tp2838
a(I494
I4
F0.07996296
tp2839
aa(lp2840
(I495
I0
F0.06755084
tp2841
a(I495
I1
F0.08689347
tp2842
a(I495
I2
F0.2966038
tp2843
a(I495
I3
F0.056683846
tp2844
a(I495
I4
F0.13244939
tp2845
aa(lp2846
(I496
I0
F0.15224889
tp2847
aa(lp2848
(I497
I0
F0.11914338
tp2849
aa(lp2850
(I498
I0
F0.30466786
tp2851
aa(lp2852
(I499
I0
F0.027483225
tp2853
a(I499
I1
F0.0
tp2854
a(I499
I2
F0.046616938
tp2855
a(I499
I3
F0.0
tp2856
a(I499
I4
F0.063540205
tp2857
a(I499
I5
F0.03888539
tp2858
a(I499
I6
F0.10494144
tp2859
aa(lp2860
(I500
I0
F0.24435829
tp2861
a(I500
I1
F0.0
tp2862
a(I500
I2
F0.037278224
tp2863
a(I500
I3
F0.0
tp2864
a(I500
I4
F0.15512094
tp2865
a(I500
I5
F0.095503904
tp2866
a(I500
I6
F0.06864128
tp2867
aa(lp2868
(I501
I0
F0.05255774
tp2869
a(I501
I1
F0.2755177
tp2870
a(I501
I2
F0.2928671
tp2871
a(I501
I3
F0.04313123
tp2872
a(I501
I4
F0.24582714
tp2873
a(I501
I5
F0.24050777
tp2874
a(I501
I6
F0.14001764
tp2875
a(I501
I7
F0.115516305
tp2876
a(I501
I8
F0.2735073
tp2877
aa(lp2878
(I502
I0
F0.03442128
tp2879
a(I502
I1
F0.27392745
tp2880
a(I502
I2
F0.24836595
tp2881
a(I502
I3
F0.12156219
tp2882
a(I502
I4
F0.1844828
tp2883
a(I502
I5
F0.27230805
tp2884
a(I502
I6
F0.17365672
tp2885
a(I502
I7
F0.119020715
tp2886
a(I502
I8
F0.25922933
tp2887
aa(lp2888
(I503
I0
F0.0508639
tp2889
a(I503
I1
F0.3647857
tp2890
a(I503
I2
F0.35323605
tp2891
a(I503
I3
F0.050932534
tp2892
a(I503
I4
F0.1885183
tp2893
a(I503
I5
F0.15140954
tp2894
a(I503
I6
F0.32696557
tp2895
a(I503
I7
F0.17816769
tp2896
a(I503
I8
F0.15787612
tp2897
aa(lp2898
(I504
I0
F0.24281013
tp2899
aa(lp2900
(I505
I0
F0.14339162
tp2901
aa(lp2902
(I506
I0
F0.3483427
tp2903
aa(lp2904
(I507
I0
F0.2997083
tp2905
aa(lp2906
(I508
I0
F0.26599777
tp2907
aa(lp2908
(I509
I0
F0.09901435
tp2909
a(I509
I1
F0.2656879
tp2910
a(I509
I2
F0.1732985
tp2911
a(I509
I3
F0.3951892
tp2912
a(I509
I4
F0.4470688
tp2913
aa(lp2914
(I510
I0
F0.064059354
tp2915
a(I510
I1
F0.21557689
tp2916
a(I510
I2
F0.14187254
tp2917
a(I510
I3
F0.30079556
tp2918
a(I510
I4
F0.14589505
tp2919
aa(lp2920
(I511
I0
F0.09552567
tp2921
a(I511
I1
F0.29906592
tp2922
a(I511
I2
F0.27738547
tp2923
a(I511
I3
F0.19633003
tp2924
a(I511
I4
F0.38017872
tp2925
aa(lp2926
(I512
I0
F0.39336506
tp2927
a(I512
I1
F0.0
tp2928
a(I512
I2
F0.32520404
tp2929
a(I512
I3
F0.2551976
tp2930
a(I512
I4
F0.30843273
tp2931
a(I512
I5
F0.37381563
tp2932
aa(lp2933
(I513
I0
F0.2600941
tp2934
a(I513
I1
F0.0
tp2935
a(I513
I2
F0.36565292
tp2936
a(I513
I3
F0.10240292
tp2937
a(I513
I4
F0.22857296
tp2938
a(I513
I5
F0.3573386
tp2939
aa(lp2940
(I514
I0
F0.39182794
tp2941
a(I514
I1
F0.07341439
tp2942
a(I514
I2
F0.21475789
tp2943
a(I514
I3
F0.2763757
tp2944
a(I514
I4
F0.37735465
tp2945
a(I514
I5
F0.12586212
tp2946
aa(lp2947
(I515
I0
F0.5142476
tp2948
a(I515
I1
F0.32901925
tp2949
a(I515
I2
F0.23294505
tp2950
a(I515
I3
F0.041144975
tp2951
aa(lp2952
(I516
I0
F0.7315565
tp2953
a(I516
I1
F0.40686738
tp2954
a(I516
I2
F0.040597823
tp2955
a(I516
I3
F0.03591222
tp2956
aa(lp2957
(I517
I0
F0.53939945
tp2958
a(I517
I1
F0.31426564
tp2959
a(I517
I2
F0.08394577
tp2960
a(I517
I3
F0.028776532
tp2961
aa(lp2962
(I518
I0
F0.30709964
tp2963
aa(lp2964
(I519
I0
F0.32295874
tp2965
aa(lp2966
(I520
I0
F0.20203854
tp2967
aa(lp2968
(I521
I0
F0.12069136
tp2969
aa(lp2970
(I522
I0
F0.3175311
tp2971
aa(lp2972
(I523
I0
F0.29151538
tp2973
aa(lp2974
(I524
I0
F0.13230588
tp2975
a(I524
I1
F0.1415863
tp2976
a(I524
I2
F0.48343596
tp2977
a(I524
I3
F0.41458467
tp2978
a(I524
I4
F0.17866401
tp2979
a(I524
I5
F0.28002423
tp2980
aa(lp2981
(I525
I0
F0.13478214
tp2982
a(I525
I1
F0.106147416
tp2983
a(I525
I2
F0.39458263
tp2984
a(I525
I3
F0.27591512
tp2985
a(I525
I4
F0.19007355
tp2986
a(I525
I5
F0.21326163
tp2987
aa(lp2988
(I526
I0
F0.15862013
tp2989
a(I526
I1
F0.09846884
tp2990
a(I526
I2
F0.39708683
tp2991
a(I526
I3
F0.26129055
tp2992
a(I526
I4
F0.30515718
tp2993
a(I526
I5
F0.20677891
tp2994
aa(lp2995
(I527
I0
F0.0
tp2996
a(I527
I1
F0.5188355
tp2997
a(I527
I2
F0.0
tp2998
a(I527
I3
F0.32225126
tp2999
aa(lp3000
(I528
I0
F0.0
tp3001
a(I528
I1
F0.30399382
tp3002
a(I528
I2
F0.06320504
tp3003
a(I528
I3
F0.29321906
tp3004
aa(lp3005
(I529
I0
F0.13701382
tp3006
a(I529
I1
F0.19796339
tp3007
a(I529
I2
F0.0
tp3008
a(I529
I3
F0.16705249
tp3009
aa(lp3010
(I530
I0
F0.084784694
tp3011
a(I530
I1
F0.023865271
tp3012
a(I530
I2
F0.07977538
tp3013
a(I530
I3
F0.07544704
tp3014
a(I530
I4
F0.24078579
tp3015
a(I530
I5
F0.251903
tp3016
a(I530
I6
F0.9021106
tp3017
a(I530
I7
F0.0
tp3018
a(I530
I8
F0.33731633
tp3019
a(I530
I9
F0.47476187
tp3020
a(I530
I10
F0.36033696
tp3021
a(I530
I11
F0.35182256
tp3022
aa(lp3023
(I531
I0
F0.20643148
tp3024
a(I531
I1
F0.14027834
tp3025
a(I531
I2
F0.06778951
tp3026
a(I531
I3
F0.09829815
tp3027
a(I531
I4
F0.36346248
tp3028
a(I531
I5
F0.2468555
tp3029
a(I531
I6
F0.14064713
tp3030
a(I531
I7
F0.0
tp3031
a(I531
I8
F0.47948882
tp3032
a(I531
I9
F0.4346166
tp3033
a(I531
I10
F0.31052282
tp3034
a(I531
I11
F0.44120097
tp3035
aa(lp3036
(I532
I0
F0.23702623
tp3037
a(I532
I1
F0.052962035
tp3038
a(I532
I2
F0.039101902
tp3039
a(I532
I3
F0.07175466
tp3040
a(I532
I4
F0.35437486
tp3041
a(I532
I5
F0.2696861
tp3042
a(I532
I6
F0.1339665
tp3043
a(I532
I7
F0.0
tp3044
a(I532
I8
F0.34856415
tp3045
a(I532
I9
F0.19962582
tp3046
a(I532
I10
F0.19174051
tp3047
a(I532
I11
F0.36405766
tp3048
aa(lp3049
(I533
I0
F0.215908
tp3050
a(I533
I1
F0.13466115
tp3051
a(I533
I2
F0.11781868
tp3052
a(I533
I3
F0.30958474
tp3053
a(I533
I4
F0.23929922
tp3054
a(I533
I5
F0.05736522
tp3055
a(I533
I6
F0.032328058
tp3056
a(I533
I7
F0.053542633
tp3057
a(I533
I8
F0.046221357
tp3058
a(I533
I9
F0.039127953
tp3059
a(I533
I10
F0.35395187
tp3060
a(I533
I11
F0.6142947
tp3061
aa(lp3062
(I534
I0
F0.2568136
tp3063
a(I534
I1
F0.06684775
tp3064
a(I534
I2
F0.021811774
tp3065
a(I534
I3
F0.28994375
tp3066
a(I534
I4
F0.14176042
tp3067
a(I534
I5
F0.101436704
tp3068
a(I534
I6
F0.06332782
tp3069
a(I534
I7
F0.06194832
tp3070
a(I534
I8
F0.060188413
tp3071
a(I534
I9
F0.045761008
tp3072
a(I534
I10
F0.27315062
tp3073
a(I534
I11
F0.0
tp3074
aa(lp3075
(I535
I0
F0.4082128
tp3076
a(I535
I1
F0.39947474
tp3077
a(I535
I2
F0.4492191
tp3078
a(I535
I3
F0.10490642
tp3079
aa(lp3080
(I536
I0
F0.2614018
tp3081
a(I536
I1
F0.38199115
tp3082
a(I536
I2
F0.2599587
tp3083
a(I536
I3
F0.11605595
tp3084
aa(lp3085
(I537
I0
F0.38524795
tp3086
a(I537
I1
F0.36226285
tp3087
a(I537
I2
F0.33502612
tp3088
a(I537
I3
F0.35363007
tp3089
aa(lp3090
(I538
I0
F0.0
tp3091
a(I538
I1
F0.38087973
tp3092
a(I538
I2
F0.34654206
tp3093
a(I538
I3
F0.1343449
tp3094
a(I538
I4
F0.022869043
tp3095
a(I538
I5
F0.30992165
tp3096
a(I538
I6
F0.23628399
tp3097
aa(lp3098
(I539
I0
F0.0
tp3099
a(I539
I1
F0.112457275
tp3100
a(I539
I2
F0.19444868
tp3101
a(I539
I3
F0.29596362
tp3102
a(I539
I4
F0.07830171
tp3103
a(I539
I5
F0.20403464
tp3104
a(I539
I6
F0.066631444
tp3105
aa(lp3106
(I540
I0
F0.0
tp3107
a(I540
I1
F0.2014325
tp3108
a(I540
I2
F0.12565054
tp3109
a(I540
I3
F0.29341087
tp3110
a(I540
I4
F0.0419703
tp3111
a(I540
I5
F0.09633313
tp3112
a(I540
I6
F0.085934214
tp3113
aa(lp3114
(I541
I0
F0.3438639
tp3115
a(I541
I1
F0.31828153
tp3116
aa(lp3117
(I542
I0
F0.2681103
tp3118
a(I542
I1
F0.24464771
tp3119
aa(lp3120
(I543
I0
F0.3917837
tp3121
a(I543
I1
F0.30847695
tp3122
aa(lp3123
(I544
I0
F0.23608334
tp3124
a(I544
I1
F0.39136302
tp3125
a(I544
I2
F0.36106953
tp3126
a(I544
I3
F0.17359646
tp3127
a(I544
I4
F0.42629173
tp3128
a(I544
I5
F0.0
tp3129
a(I544
I6
F0.27070978
tp3130
a(I544
I7
F0.37561384
tp3131
a(I544
I8
F0.0
tp3132
a(I544
I9
F0.42459267
tp3133
a(I544
I10
F0.32055506
tp3134
aa(lp3135
(I545
I0
F0.11946207
tp3136
a(I545
I1
F0.07447745
tp3137
a(I545
I2
F0.12747926
tp3138
a(I545
I3
F0.0488216
tp3139
a(I545
I4
F0.23974402
tp3140
a(I545
I5
F0.0
tp3141
a(I545
I6
F0.27979386
tp3142
a(I545
I7
F0.24916202
tp3143
a(I545
I8
F0.0
tp3144
a(I545
I9
F0.30414814
tp3145
a(I545
I10
F0.11571529
tp3146
aa(lp3147
(I546
I0
F0.20200917
tp3148
a(I546
I1
F0.16521896
tp3149
a(I546
I2
F0.25223818
tp3150
a(I546
I3
F0.2011677
tp3151
a(I546
I4
F0.3115521
tp3152
a(I546
I5
F0.0
tp3153
a(I546
I6
F0.13008474
tp3154
a(I546
I7
F0.2884571
tp3155
a(I546
I8
F0.0
tp3156
a(I546
I9
F0.35856858
tp3157
a(I546
I10
F0.2792337
tp3158
aa(lp3159
(I547
I0
F0.3426358
tp3160
a(I547
I1
F0.3186616
tp3161
a(I547
I2
F0.36397368
tp3162
a(I547
I3
F0.2947996
tp3163
a(I547
I4
F0.24059103
tp3164
a(I547
I5
F0.2814368
tp3165
a(I547
I6
F0.08302024
tp3166
a(I547
I7
F0.47967228
tp3167
a(I547
I8
F0.17808957
tp3168
a(I547
I9
F0.26471198
tp3169
aa(lp3170
(I548
I0
F0.262658
tp3171
a(I548
I1
F0.3502099
tp3172
a(I548
I2
F0.26912266
tp3173
a(I548
I3
F0.094120875
tp3174
a(I548
I4
F0.048957154
tp3175
a(I548
I5
F0.09657632
tp3176
a(I548
I6
F0.07880896
tp3177
a(I548
I7
F0.2526204
tp3178
a(I548
I8
F0.36051783
tp3179
a(I548
I9
F0.07875112
tp3180
aa(lp3181
(I549
I0
F0.23530352
tp3182
a(I549
I1
F0.2646178
tp3183
a(I549
I2
F0.25557828
tp3184
a(I549
I3
F0.23137756
tp3185
a(I549
I4
F0.13335149
tp3186
a(I549
I5
F0.17571978
tp3187
a(I549
I6
F0.10766618
tp3188
a(I549
I7
F0.13026111
tp3189
a(I549
I8
F0.2935785
tp3190
a(I549
I9
F0.10280384
tp3191
aa(lp3192
(I550
I0
F0.07362034
tp3193
a(I550
I1
F0.4242331
tp3194
a(I550
I2
F0.2535485
tp3195
a(I550
I3
F0.23208606
tp3196
a(I550
I4
F0.37344083
tp3197
a(I550
I5
F0.0923329
tp3198
a(I550
I6
F0.30918312
tp3199
a(I550
I7
F0.26345357
tp3200
a(I550
I8
F0.34732392
tp3201
aa(lp3202
(I551
I0
F0.04325414
tp3203
a(I551
I1
F0.30644658
tp3204
a(I551
I2
F0.14998926
tp3205
a(I551
I3
F0.24774906
tp3206
a(I551
I4
F0.099975005
tp3207
a(I551
I5
F0.06807354
tp3208
a(I551
I6
F0.14286275
tp3209
a(I551
I7
F0.049112186
tp3210
a(I551
I8
F0.23270698
tp3211
aa(lp3212
(I552
I0
F0.051522866
tp3213
a(I552
I1
F0.3064913
tp3214
a(I552
I2
F0.40642932
tp3215
a(I552
I3
F0.29815915
tp3216
a(I552
I4
F0.32567722
tp3217
a(I552
I5
F0.08603022
tp3218
a(I552
I6
F0.243783
tp3219
a(I552
I7
F0.27958718
tp3220
a(I552
I8
F0.24313952
tp3221
aa(lp3222
(I553
I0
F0.05950848
tp3223
a(I553
I1
F0.14740703
tp3224
a(I553
I2
F0.14316171
tp3225
a(I553
I3
F0.101164505
tp3226
a(I553
I4
F0.14686042
tp3227
a(I553
I5
F0.0354462
tp3228
a(I553
I6
F0.157228
tp3229
a(I553
I7
F0.35043922
tp3230
a(I553
I8
F0.2932292
tp3231
a(I553
I9
F0.12805928
tp3232
a(I553
I10
F0.08984217
tp3233
a(I553
I11
F0.13802521
tp3234
aa(lp3235
(I554
I0
F0.17189229
tp3236
a(I554
I1
F0.1537145
tp3237
a(I554
I2
F0.09662785
tp3238
a(I554
I3
F0.09997255
tp3239
a(I554
I4
F0.07225783
tp3240
a(I554
I5
F0.034086
tp3241
a(I554
I6
F0.24729714
tp3242
a(I554
I7
F0.23752068
tp3243
a(I554
I8
F0.1072632
tp3244
a(I554
I9
F0.1201434
tp3245
a(I554
I10
F0.23238765
tp3246
a(I554
I11
F0.31958598
tp3247
aa(lp3248
(I555
I0
F0.15444636
tp3249
a(I555
I1
F0.09455623
tp3250
a(I555
I2
F0.11261175
tp3251
a(I555
I3
F0.057674643
tp3252
a(I555
I4
F0.08896195
tp3253
a(I555
I5
F0.121573776
tp3254
a(I555
I6
F0.2567792
tp3255
a(I555
I7
F0.3968392
tp3256
a(I555
I8
F0.07980839
tp3257
a(I555
I9
F0.055000525
tp3258
a(I555
I10
F0.25237668
tp3259
a(I555
I11
F0.34334365
tp3260
aa(lp3261
(I556
I0
F0.25167063
tp3262
a(I556
I1
F0.34198287
tp3263
a(I556
I2
F0.4342489
tp3264
a(I556
I3
F0.19805914
tp3265
a(I556
I4
F0.3557264
tp3266
a(I556
I5
F0.12843107
tp3267
a(I556
I6
F0.12843625
tp3268
aa(lp3269
(I557
I0
F0.11655078
tp3270
a(I557
I1
F0.21401708
tp3271
a(I557
I2
F0.18084781
tp3272
a(I557
I3
F0.10788423
tp3273
a(I557
I4
F0.21817307
tp3274
a(I557
I5
F0.0873558
tp3275
a(I557
I6
F0.089621104
tp3276
aa(lp3277
(I558
I0
F0.09053754
tp3278
a(I558
I1
F0.31076685
tp3279
a(I558
I2
F0.7131889
tp3280
a(I558
I3
F0.35623187
tp3281
a(I558
I4
F0.23465577
tp3282
a(I558
I5
F0.33803734
tp3283
aa(lp3284
(I559
I0
F0.28883106
tp3285
a(I559
I1
F0.105227746
tp3286
a(I559
I2
F0.26976186
tp3287
a(I559
I3
F0.37862924
tp3288
a(I559
I4
F0.2729401
tp3289
a(I559
I5
F0.31979853
tp3290
aa(lp3291
(I560
I0
F0.31832552
tp3292
a(I560
I1
F0.045781396
tp3293
a(I560
I2
F0.21958952
tp3294
a(I560
I3
F0.3008335
tp3295
a(I560
I4
F0.42858753
tp3296
a(I560
I5
F0.11626336
tp3297
aa(lp3298
(I561
I0
F0.42132038
tp3299
a(I561
I1
F0.23451689
tp3300
a(I561
I2
F0.11217166
tp3301
a(I561
I3
F0.35627857
tp3302
aa(lp3303
(I562
I0
F0.290753
tp3304
a(I562
I1
F0.1356954
tp3305
a(I562
I2
F0.06166581
tp3306
a(I562
I3
F0.08691441
tp3307
aa(lp3308
(I563
I0
F0.24699388
tp3309
a(I563
I1
F0.22928165
tp3310
a(I563
I2
F0.07756392
tp3311
a(I563
I3
F0.29390958
tp3312
aa(lp3313
(I564
I0
F0.046399657
tp3314
a(I564
I1
F0.13019887
tp3315
a(I564
I2
F0.013472398
tp3316
a(I564
I3
F0.23629948
tp3317
a(I564
I4
F0.059278425
tp3318
a(I564
I5
F0.27628073
tp3319
a(I564
I6
F0.30897504
tp3320
aa(lp3321
(I565
I0
F0.07958837
tp3322
a(I565
I1
F0.28267637
tp3323
a(I565
I2
F0.022038981
tp3324
a(I565
I3
F0.13026884
tp3325
a(I565
I4
F0.04516924
tp3326
a(I565
I5
F0.22474764
tp3327
a(I565
I6
F0.23481156
tp3328
aa(lp3329
(I566
I0
F0.0
tp3330
a(I566
I1
F0.26413864
tp3331
a(I566
I2
F0.026661314
tp3332
a(I566
I3
F0.05358475
tp3333
a(I566
I4
F0.012546894
tp3334
a(I566
I5
F0.22316425
tp3335
a(I566
I6
F0.24176297
tp3336
aa(lp3337
(I567
I0
F0.24297217
tp3338
a(I567
I1
F0.30388203
tp3339
a(I567
I2
F0.31218666
tp3340
a(I567
I3
F0.336488
tp3341
aa(lp3342
(I568
I0
F0.128925
tp3343
a(I568
I1
F0.23673026
tp3344
a(I568
I2
F0.07839088
tp3345
a(I568
I3
F0.25211835
tp3346
aa(lp3347
(I569
I0
F0.4817413
tp3348
a(I569
I1
F0.26542294
tp3349
a(I569
I2
F0.28742296
tp3350
a(I569
I3
F0.18129738
tp3351
aa(lp3352
(I570
I0
F0.35192248
tp3353
a(I570
I1
F0.46080133
tp3354
aa(lp3355
(I571
I0
F0.2649976
tp3356
a(I571
I1
F0.32769564
tp3357
aa(lp3358
(I572
I0
F0.25938678
tp3359
a(I572
I1
F0.4148982
tp3360
aa(lp3361
(I573
I0
F0.13347048
tp3362
a(I573
I1
F0.04276905
tp3363
a(I573
I2
F0.31259418
tp3364
a(I573
I3
F0.06380549
tp3365
a(I573
I4
F0.2425755
tp3366
a(I573
I5
F0.32156873
tp3367
a(I573
I6
F0.18025444
tp3368
a(I573
I7
F0.33265364
tp3369
a(I573
I8
F0.10992835
tp3370
a(I573
I9
F0.40997615
tp3371
a(I573
I10
F0.032804463
tp3372
a(I573
I11
F0.0
tp3373
aa(lp3374
(I574
I0
F0.08509474
tp3375
a(I574
I1
F0.034644336
tp3376
a(I574
I2
F0.28782275
tp3377
a(I574
I3
F0.048470467
tp3378
a(I574
I4
F0.050272346
tp3379
a(I574
I5
F0.26480773
tp3380
a(I574
I6
F0.13505699
tp3381
a(I574
I7
F0.30267325
tp3382
a(I574
I8
F0.10459144
tp3383
a(I574
I9
F0.30597037
tp3384
a(I574
I10
F0.015858654
tp3385
a(I574
I11
F0.0
tp3386
aa(lp3387
(I575
I0
F0.29425535
tp3388
a(I575
I1
F0.24161789
tp3389
a(I575
I2
F0.34818098
tp3390
a(I575
I3
F0.16625541
tp3391
a(I575
I4
F0.14113055
tp3392
a(I575
I5
F0.40459123
tp3393
a(I575
I6
F0.4540904
tp3394
a(I575
I7
F0.5658104
tp3395
a(I575
I8
F0.49254015
tp3396
a(I575
I9
F0.28358817
tp3397
a(I575
I10
F0.018653346
tp3398
a(I575
I11
F0.0
tp3399
aa(lp3400
(I576
I0
F0.4155755
tp3401
a(I576
I1
F0.16359198
tp3402
a(I576
I2
F0.3353887
tp3403
a(I576
I3
F0.07989368
tp3404
a(I576
I4
F0.120518126
tp3405
a(I576
I5
F0.41150343
tp3406
aa(lp3407
(I577
I0
F0.20047678
tp3408
a(I577
I1
F0.1612427
tp3409
a(I577
I2
F0.14101529
tp3410
a(I577
I3
F0.10827651
tp3411
a(I577
I4
F0.058415916
tp3412
a(I577
I5
F0.17232355
tp3413
aa(lp3414
(I578
I0
F0.21364722
tp3415
a(I578
I1
F0.20824607
tp3416
a(I578
I2
F0.18131891
tp3417
a(I578
I3
F0.164778
tp3418
a(I578
I4
F0.02133322
tp3419
a(I578
I5
F0.18399845
tp3420
aa(lp3421
(I579
I0
F0.11115046
tp3422
a(I579
I1
F0.39078438
tp3423
a(I579
I2
F0.3158558
tp3424
a(I579
I3
F0.19336274
tp3425
a(I579
I4
F0.1810949
tp3426
aa(lp3427
(I580
I0
F0.06271937
tp3428
a(I580
I1
F0.3456293
tp3429
a(I580
I2
F0.22949038
tp3430
a(I580
I3
F0.0
tp3431
a(I580
I4
F0.11513525
tp3432
aa(lp3433
(I581
I0
F0.308541
tp3434
a(I581
I1
F0.2491353
tp3435
a(I581
I2
F0.28687316
tp3436
a(I581
I3
F0.12818703
tp3437
a(I581
I4
F0.07672544
tp3438
aa(lp3439
(I582
I0
F0.25308692
tp3440
a(I582
I1
F0.5839221
tp3441
aa(lp3442
(I583
I0
F0.33852005
tp3443
a(I583
I1
F0.34779328
tp3444
aa(lp3445
(I584
I0
F0.339361
tp3446
a(I584
I1
F0.27278426
tp3447
aa(lp3448
(I585
I0
F0.15077575
tp3449
a(I585
I1
F0.06159611
tp3450
a(I585
I2
F0.021666424
tp3451
a(I585
I3
F0.1169995
tp3452
a(I585
I4
F0.03451134
tp3453
a(I585
I5
F0.06282887
tp3454
aa(lp3455
(I586
I0
F0.069464624
tp3456
a(I586
I1
F0.06503115
tp3457
a(I586
I2
F0.019629192
tp3458
a(I586
I3
F0.21477751
tp3459
a(I586
I4
F0.15418546
tp3460
a(I586
I5
F0.07889536
tp3461
aa(lp3462
(I587
I0
F0.038440656
tp3463
a(I587
I1
F0.036662158
tp3464
a(I587
I2
F0.04555116
tp3465
a(I587
I3
F0.23794097
tp3466
a(I587
I4
F0.017069783
tp3467
a(I587
I5
F0.045735177
tp3468
aa(lp3469
(I588
I0
F0.25703683
tp3470
a(I588
I1
F0.3395075
tp3471
a(I588
I2
F0.13360648
tp3472
aa(lp3473
(I589
I0
F0.38887498
tp3474
a(I589
I1
F0.16406965
tp3475
a(I589
I2
F0.1376657
tp3476
aa(lp3477
(I590
I0
F0.18028623
tp3478
a(I590
I1
F0.30024147
tp3479
a(I590
I2
F0.44160098
tp3480
aa(lp3481
(I591
I0
F0.6089114
tp3482
aa(lp3483
(I592
I0
F0.29265523
tp3484
aa(lp3485
(I593
I0
F0.15694846
tp3486
aa(lp3487
(I594
I0
F0.13524023
tp3488
a(I594
I1
F0.13198972
tp3489
a(I594
I2
F0.17713362
tp3490
a(I594
I3
F0.07933608
tp3491
aa(lp3492
(I595
I0
F0.10380461
tp3493
a(I595
I1
F0.05006076
tp3494
a(I595
I2
F0.10791707
tp3495
a(I595
I3
F0.07105221
tp3496
aa(lp3497
(I596
I0
F0.28345886
tp3498
a(I596
I1
F0.19610058
tp3499
a(I596
I2
F0.188777
tp3500
a(I596
I3
F0.26359057
tp3501
aa(lp3502
(I597
I0
F0.25076997
tp3503
a(I597
I1
F0.1398158
tp3504
a(I597
I2
F0.112768866
tp3505
a(I597
I3
F0.18672068
tp3506
aa(lp3507
(I598
I0
F0.08449811
tp3508
a(I598
I1
F0.22302377
tp3509
a(I598
I2
F0.09230363
tp3510
a(I598
I3
F0.22862297
tp3511
aa(lp3512
(I599
I0
F0.114285514
tp3513
a(I599
I1
F0.2634751
tp3514
a(I599
I2
F0.11811839
tp3515
a(I599
I3
F0.09502122
tp3516
aa(lp3517
(I600
I0
F0.1416256
tp3518
a(I600
I1
F0.33839813
tp3519
aa(lp3520
(I601
I0
F0.09562962
tp3521
a(I601
I1
F0.24708772
tp3522
aa(lp3523
(I602
I0
F0.18825574
tp3524
a(I602
I1
F0.28334337
tp3525
aa(lp3526
(I603
I0
F0.42993188
tp3527
aa(lp3528
(I604
I0
F0.28943297
tp3529
aa(lp3530
(I605
I0
F0.50244534
tp3531
aa(lp3532
(I606
I0
F0.16897407
tp3533
a(I606
I1
F0.18044625
tp3534
a(I606
I2
F0.25254002
tp3535
a(I606
I3
F0.26385576
tp3536
a(I606
I4
F0.10283043
tp3537
a(I606
I5
F0.18971404
tp3538
a(I606
I6
F0.27222148
tp3539
a(I606
I7
F0.21983865
tp3540
a(I606
I8
F0.19836918
tp3541
a(I606
I9
F0.28721082
tp3542
a(I606
I10
F0.2955163
tp3543
a(I606
I11
F0.10860254
tp3544
a(I606
I12
F0.040318638
tp3545
a(I606
I13
F0.28219068
tp3546
aa(lp3547
(I607
I0
F0.11196442
tp3548
a(I607
I1
F0.11452238
tp3549
a(I607
I2
F0.2789065
tp3550
a(I607
I3
F0.054951478
tp3551
a(I607
I4
F0.0048541958
tp3552
a(I607
I5
F0.09316831
tp3553
a(I607
I6
F0.24080026
tp3554
a(I607
I7
F0.07549832
tp3555
a(I607
I8
F0.07534428
tp3556
a(I607
I9
F0.04807362
tp3557
a(I607
I10
F0.0971756
tp3558
a(I607
I11
F0.030551916
tp3559
a(I607
I12
F0.03484798
tp3560
a(I607
I13
F0.16343546
tp3561
aa(lp3562
(I608
I0
F0.11326358
tp3563
a(I608
I1
F0.2994672
tp3564
a(I608
I2
F0.33474985
tp3565
a(I608
I3
F0.34325403
tp3566
a(I608
I4
F0.101034954
tp3567
aa(lp3568
(I609
I0
F0.30151868
tp3569
a(I609
I1
F0.034121796
tp3570
a(I609
I2
F0.31158188
tp3571
a(I609
I3
F0.3343099
tp3572
a(I609
I4
F0.067054026
tp3573
aa(lp3574
(I610
I0
F0.33401698
tp3575
a(I610
I1
F0.10795746
tp3576
a(I610
I2
F0.1811934
tp3577
a(I610
I3
F0.16380435
tp3578
a(I610
I4
F0.09251431
tp3579
aa(lp3580
(I611
I0
F0.0506623
tp3581
aa(lp3582
(I612
I0
F0.18942575
tp3583
aa(lp3584
(I613
I0
F0.04569484
tp3585
aa(lp3586
(I614
I0
F0.38671964
tp3587
a(I614
I1
F0.13978049
tp3588
a(I614
I2
F0.1711628
tp3589
aa(lp3590
(I615
I0
F0.3589168
tp3591
a(I615
I1
F0.11180747
tp3592
a(I615
I2
F0.10516253
tp3593
aa(lp3594
(I616
I0
F0.29269108
tp3595
a(I616
I1
F0.05762334
tp3596
a(I616
I2
F0.14767417
tp3597
aa(lp3598
(I617
I0
F0.1692039
tp3599
a(I617
I1
F0.31277034
tp3600
aa(lp3601
(I618
I0
F0.15901178
tp3602
a(I618
I1
F0.12133774
tp3603
aa(lp3604
(I619
I0
F0.46847665
tp3605
a(I619
I1
F0.2530451
tp3606
aa(lp3607
(I620
I0
F0.33142993
tp3608
a(I620
I1
F0.3537051
tp3609
a(I620
I2
F0.45359865
tp3610
a(I620
I3
F0.07039506
tp3611
a(I620
I4
F0.28357548
tp3612
a(I620
I5
F0.08249711
tp3613
a(I620
I6
F0.08821103
tp3614
aa(lp3615
(I621
I0
F0.28654858
tp3616
a(I621
I1
F0.31195766
tp3617
a(I621
I2
F0.40995625
tp3618
a(I621
I3
F0.041751146
tp3619
a(I621
I4
F0.3154262
tp3620
a(I621
I5
F0.07637374
tp3621
a(I621
I6
F0.1329565
tp3622
aa(lp3623
(I622
I0
F0.19818306
tp3624
a(I622
I1
F0.1840029
tp3625
a(I622
I2
F0.21985228
tp3626
a(I622
I3
F0.063204184
tp3627
a(I622
I4
F0.27478978
tp3628
a(I622
I5
F0.062333353
tp3629
a(I622
I6
F0.11437422
tp3630
aa(lp3631
(I623
I0
F0.2640269
tp3632
aa(lp3633
(I624
I0
F0.27774605
tp3634
aa(lp3635
(I625
I0
F0.2922271
tp3636
aa(lp3637
(I626
I0
F0.6593361
tp3638
aa(lp3639
(I627
I0
F0.30559674
tp3640
aa(lp3641
(I628
I0
F0.17115927
tp3642
aa(lp3643
(I629
I0
F0.13737927
tp3644
a(I629
I1
F0.41890156
tp3645
a(I629
I2
F0.11541285
tp3646
a(I629
I3
F0.15365776
tp3647
a(I629
I4
F0.12456979
tp3648
a(I629
I5
F0.33066493
tp3649
aa(lp3650
(I630
I0
F0.11584745
tp3651
a(I630
I1
F0.30958492
tp3652
a(I630
I2
F0.063863024
tp3653
a(I630
I3
F0.07456465
tp3654
a(I630
I4
F0.096228935
tp3655
a(I630
I5
F0.26763424
tp3656
aa(lp3657
(I631
I0
F0.3588768
tp3658
aa(lp3659
(I632
I0
F0.26274082
tp3660
aa(lp3661
(I633
I0
F0.33412564
tp3662
aa(lp3663
(I634
I0
F0.5363923
tp3664
a(I634
I1
F0.4331922
tp3665
a(I634
I2
F0.31368586
tp3666
aa(lp3667
(I635
I0
F0.28486034
tp3668
a(I635
I1
F0.41822568
tp3669
a(I635
I2
F0.14422949
tp3670
aa(lp3671
(I636
I0
F0.31074974
tp3672
a(I636
I1
F0.3629487
tp3673
a(I636
I2
F0.2859496
tp3674
aa(lp3675
(I637
I0
F0.3396276
tp3676
a(I637
I1
F0.30154613
tp3677
a(I637
I2
F0.21568964
tp3678
a(I637
I3
F0.038938195
tp3679
a(I637
I4
F0.21412314
tp3680
a(I637
I5
F0.14026465
tp3681
a(I637
I6
F0.17732425
tp3682
a(I637
I7
F0.1459326
tp3683
aa(lp3684
(I638
I0
F0.13392708
tp3685
a(I638
I1
F0.32454932
tp3686
a(I638
I2
F0.0470384
tp3687
a(I638
I3
F0.028597824
tp3688
a(I638
I4
F0.13051139
tp3689
a(I638
I5
F0.09409195
tp3690
a(I638
I6
F0.06801902
tp3691
a(I638
I7
F0.086741716
tp3692
aa(lp3693
(I639
I0
F0.43754712
tp3694
a(I639
I1
F0.1804165
tp3695
a(I639
I2
F0.055909887
tp3696
a(I639
I3
F0.062746674
tp3697
a(I639
I4
F0.25958008
tp3698
a(I639
I5
F0.18692347
tp3699
a(I639
I6
F0.23265979
tp3700
a(I639
I7
F0.222636
tp3701
aa(lp3702
(I640
I0
F0.49541408
tp3703
a(I640
I1
F0.4527197
tp3704
a(I640
I2
F0.5707216
tp3705
a(I640
I3
F0.44355845
tp3706
a(I640
I4
F0.51314706
tp3707
aa(lp3708
(I641
I0
F0.31734064
tp3709
a(I641
I1
F0.17761703
tp3710
a(I641
I2
F0.3027282
tp3711
a(I641
I3
F0.23502769
tp3712
a(I641
I4
F0.23055676
tp3713
aa(lp3714
(I642
I0
F0.19695008
tp3715
a(I642
I1
F0.17016466
tp3716
a(I642
I2
F0.14652106
tp3717
a(I642
I3
F0.20092319
tp3718
a(I642
I4
F0.15264656
tp3719
aa(lp3720
(I643
I0
F0.45624682
tp3721
a(I643
I1
F0.18468304
tp3722
a(I643
I2
F0.13715109
tp3723
a(I643
I3
F0.13453676
tp3724
a(I643
I4
F0.1396722
tp3725
a(I643
I5
F0.048857294
tp3726
aa(lp3727
(I644
I0
F0.30237567
tp3728
a(I644
I1
F0.33856755
tp3729
a(I644
I2
F0.37777442
tp3730
a(I644
I3
F0.2732425
tp3731
a(I644
I4
F0.14943026
tp3732
a(I644
I5
F0.0
tp3733
aa(lp3734
(I645
I0
F0.2685928
tp3735
a(I645
I1
F0.19638726
tp3736
a(I645
I2
F0.33634457
tp3737
a(I645
I3
F0.21911013
tp3738
a(I645
I4
F0.07046862
tp3739
a(I645
I5
F0.018757211
tp3740
aa(lp3741
(I646
I0
F0.41023064
tp3742
a(I646
I1
F0.3753376
tp3743
a(I646
I2
F0.043992374
tp3744
a(I646
I3
F0.0
tp3745
a(I646
I4
F0.12946287
tp3746
a(I646
I5
F0.14157948
tp3747
a(I646
I6
F0.09934129
tp3748
a(I646
I7
F0.11406284
tp3749
aa(lp3750
(I647
I0
F0.55852926
tp3751
a(I647
I1
F0.32560107
tp3752
a(I647
I2
F0.033205044
tp3753
a(I647
I3
F0.07660892
tp3754
a(I647
I4
F0.24054512
tp3755
a(I647
I5
F0.36936444
tp3756
a(I647
I6
F0.09157147
tp3757
a(I647
I7
F0.22566265
tp3758
aa(lp3759
(I648
I0
F0.40049037
tp3760
a(I648
I1
F0.3008659
tp3761
a(I648
I2
F0.05629292
tp3762
a(I648
I3
F0.049525596
tp3763
a(I648
I4
F0.2640755
tp3764
a(I648
I5
F0.41037747
tp3765
a(I648
I6
F0.14155902
tp3766
a(I648
I7
F0.2208064
tp3767
aa(lp3768
(I649
I0
F0.30306494
tp3769
a(I649
I1
F0.49081814
tp3770
a(I649
I2
F0.31113878
tp3771
a(I649
I3
F0.48363435
tp3772
a(I649
I4
F0.24764499
tp3773
aa(lp3774
(I650
I0
F0.31097084
tp3775
a(I650
I1
F0.24484707
tp3776
a(I650
I2
F0.08786387
tp3777
a(I650
I3
F0.31583285
tp3778
a(I650
I4
F0.12833391
tp3779
aa(lp3780
(I651
I0
F0.34092167
tp3781
a(I651
I1
F0.19072294
tp3782
a(I651
I2
F0.11075469
tp3783
a(I651
I3
F0.22568147
tp3784
a(I651
I4
F0.0908591
tp3785
aa(lp3786
(I652
I0
F0.33554077
tp3787
a(I652
I1
F0.29229414
tp3788
a(I652
I2
F0.4404307
tp3789
a(I652
I3
F0.05449918
tp3790
aa(lp3791
(I653
I0
F0.11683099
tp3792
a(I653
I1
F0.22132885
tp3793
a(I653
I2
F0.35894215
tp3794
a(I653
I3
F0.061326906
tp3795
aa(lp3796
(I654
I0
F0.19238017
tp3797
a(I654
I1
F0.21037854
tp3798
a(I654
I2
F0.27893257
tp3799
a(I654
I3
F0.091026016
tp3800
aa(lp3801
(I655
I0
F0.0
tp3802
a(I655
I1
F0.3380858
tp3803
a(I655
I2
F0.3449516
tp3804
a(I655
I3
F0.28319308
tp3805
a(I655
I4
F0.43150243
tp3806
a(I655
I5
F0.037461888
tp3807
a(I655
I6
F0.28287295
tp3808
a(I655
I7
F0.03597026
tp3809
a(I655
I8
F0.35174602
tp3810
aa(lp3811
(I656
I0
F0.0
tp3812
a(I656
I1
F0.27218577
tp3813
a(I656
I2
F0.4903025
tp3814
a(I656
I3
F0.22944105
tp3815
a(I656
I4
F0.5853517
tp3816
a(I656
I5
F0.048259277
tp3817
a(I656
I6
F0.34185582
tp3818
a(I656
I7
F0.022982901
tp3819
a(I656
I8
F0.22908582
tp3820
aa(lp3821
(I657
I0
F0.0
tp3822
a(I657
I1
F0.3948624
tp3823
a(I657
I2
F0.29931954
tp3824
a(I657
I3
F0.28638798
tp3825
a(I657
I4
F0.439921
tp3826
a(I657
I5
F0.05856112
tp3827
a(I657
I6
F0.15628405
tp3828
a(I657
I7
F0.053689264
tp3829
a(I657
I8
F0.31236583
tp3830
aa(lp3831
(I658
I0
F0.40368336
tp3832
a(I658
I1
F0.41651112
tp3833
a(I658
I2
F0.2854285
tp3834
aa(lp3835
(I659
I0
F0.1510088
tp3836
a(I659
I1
F0.4464888
tp3837
a(I659
I2
F0.3789005
tp3838
aa(lp3839
(I660
I0
F0.27569765
tp3840
a(I660
I1
F0.23676032
tp3841
a(I660
I2
F0.17639633
tp3842
aa(lp3843
(I661
I0
F0.42163882
tp3844
a(I661
I1
F0.068326406
tp3845
a(I661
I2
F0.021666424
tp3846
aa(lp3847
(I662
I0
F0.33626556
tp3848
a(I662
I1
F0.15489757
tp3849
a(I662
I2
F0.019629192
tp3850
aa(lp3851
(I663
I0
F0.41792715
tp3852
a(I663
I1
F0.09676997
tp3853
a(I663
I2
F0.032891244
tp3854
aa(lp3855
(I664
I0
F0.028173467
tp3856
a(I664
I1
F0.3535626
tp3857
a(I664
I2
F0.09809171
tp3858
a(I664
I3
F0.22554883
tp3859
a(I664
I4
F0.19409205
tp3860
a(I664
I5
F0.2888599
tp3861
a(I664
I6
F0.1183636
tp3862
a(I664
I7
F0.26816672
tp3863
aa(lp3864
(I665
I0
F0.0
tp3865
a(I665
I1
F0.055651017
tp3866
a(I665
I2
F0.099549614
tp3867
a(I665
I3
F0.093339205
tp3868
a(I665
I4
F0.0
tp3869
a(I665
I5
F0.23354486
tp3870
a(I665
I6
F0.050010685
tp3871
a(I665
I7
F0.19031043
tp3872
aa(lp3873
(I666
I0
F0.06560954
tp3874
a(I666
I1
F0.27993256
tp3875
a(I666
I2
F0.23702906
tp3876
a(I666
I3
F0.21299854
tp3877
a(I666
I4
F0.02931046
tp3878
a(I666
I5
F0.15229268
tp3879
a(I666
I6
F0.46178603
tp3880
a(I666
I7
F0.36662745
tp3881
aa(lp3882
(I667
I0
F0.32021418
tp3883
a(I667
I1
F0.19973604
tp3884
a(I667
I2
F0.39110935
tp3885
a(I667
I3
F0.3330195
tp3886
aa(lp3887
(I668
I0
F0.29677364
tp3888
a(I668
I1
F0.33695903
tp3889
a(I668
I2
F0.35723588
tp3890
a(I668
I3
F0.26526743
tp3891
aa(lp3892
(I669
I0
F0.27093047
tp3893
a(I669
I1
F0.32181168
tp3894
a(I669
I2
F0.12368375
tp3895
a(I669
I3
F0.2277212
tp3896
aa(lp3897
(I670
I0
F0.15463106
tp3898
a(I670
I1
F0.16717617
tp3899
aa(lp3900
(I671
I0
F0.14002883
tp3901
a(I671
I1
F0.14341946
tp3902
aa(lp3903
(I672
I0
F0.17746618
tp3904
a(I672
I1
F0.13432057
tp3905
aa(lp3906
(I673
I0
F0.0
tp3907
a(I673
I1
F0.08659868
tp3908
a(I673
I2
F0.44042498
tp3909
a(I673
I3
F0.25917882
tp3910
a(I673
I4
F0.13663973
tp3911
a(I673
I5
F0.049157184
tp3912
a(I673
I6
F0.2700913
tp3913
a(I673
I7
F0.3147684
tp3914
a(I673
I8
F0.29651484
tp3915
a(I673
I9
F0.29027843
tp3916
a(I673
I10
F0.08349227
tp3917
a(I673
I11
F0.13008647
tp3918
aa(lp3919
(I674
I0
F0.0
tp3920
a(I674
I1
F0.08721234
tp3921
a(I674
I2
F0.3950364
tp3922
a(I674
I3
F0.21345663
tp3923
a(I674
I4
F0.23844282
tp3924
a(I674
I5
F0.025342416
tp3925
a(I674
I6
F0.10454349
tp3926
a(I674
I7
F0.037637223
tp3927
a(I674
I8
F0.078386
tp3928
a(I674
I9
F0.21753585
tp3929
a(I674
I10
F0.22004732
tp3930
a(I674
I11
F0.3294646
tp3931
aa(lp3932
(I675
I0
F0.0
tp3933
a(I675
I1
F0.0
tp3934
a(I675
I2
F0.14128442
tp3935
a(I675
I3
F0.15416613
tp3936
a(I675
I4
F0.25014907
tp3937
a(I675
I5
F0.012737894
tp3938
a(I675
I6
F0.09333744
tp3939
a(I675
I7
F0.07555377
tp3940
a(I675
I8
F0.11377721
tp3941
a(I675
I9
F0.32060865
tp3942
a(I675
I10
F0.32427767
tp3943
a(I675
I11
F0.23373552
tp3944
aa(lp3945
(I676
I0
F0.0
tp3946
a(I676
I1
F0.1834636
tp3947
a(I676
I2
F0.3174561
tp3948
a(I676
I3
F0.33526528
tp3949
a(I676
I4
F0.0540257
tp3950
aa(lp3951
(I677
I0
F0.0
tp3952
a(I677
I1
F0.2632189
tp3953
a(I677
I2
F0.27625775
tp3954
a(I677
I3
F0.11046954
tp3955
a(I677
I4
F0.1854705
tp3956
aa(lp3957
(I678
I0
F0.0
tp3958
a(I678
I1
F0.23931557
tp3959
a(I678
I2
F0.2512057
tp3960
a(I678
I3
F0.29248065
tp3961
a(I678
I4
F0.037976056
tp3962
aa(lp3963
(I679
I0
F0.119436674
tp3964
a(I679
I1
F0.32302272
tp3965
a(I679
I2
F0.4326588
tp3966
a(I679
I3
F0.025552927
tp3967
a(I679
I4
F0.46625304
tp3968
a(I679
I5
F0.0
tp3969
a(I679
I6
F0.33014083
tp3970
a(I679
I7
F0.43387973
tp3971
a(I679
I8
F0.0
tp3972
a(I679
I9
F0.46124196
tp3973
a(I679
I10
F0.31958923
tp3974
aa(lp3975
(I680
I0
F0.097882956
tp3976
a(I680
I1
F0.13051975
tp3977
a(I680
I2
F0.39985228
tp3978
a(I680
I3
F0.044140566
tp3979
a(I680
I4
F0.18925793
tp3980
a(I680
I5
F0.0
tp3981
a(I680
I6
F0.098955885
tp3982
a(I680
I7
F0.31002754
tp3983
a(I680
I8
F0.0
tp3984
a(I680
I9
F0.3472229
tp3985
a(I680
I10
F0.12732144
tp3986
aa(lp3987
(I681
I0
F0.38122347
tp3988
aa(lp3989
(I682
I0
F0.27903154
tp3990
aa(lp3991
(I683
I0
F0.38363588
tp3992
aa(lp3993
(I684
I0
F0.24751039
tp3994
a(I684
I1
F0.19329323
tp3995
a(I684
I2
F0.3380463
tp3996
aa(lp3997
(I685
I0
F0.26563838
tp3998
a(I685
I1
F0.0462621
tp3999
a(I685
I2
F0.24062072
tp4000
aa(lp4001
(I686
I0
F0.34601787
tp4002
aa(lp4003
(I687
I0
F0.23522347
tp4004
aa(lp4005
(I688
I0
F0.23847598
tp4006
aa(lp4007
(I689
I0
F0.1217833
tp4008
a(I689
I1
F0.17900138
tp4009
a(I689
I2
F0.02354543
tp4010
a(I689
I3
F0.27612194
tp4011
a(I689
I4
F0.31539023
tp4012
a(I689
I5
F0.2217121
tp4013
a(I689
I6
F0.061731257
tp4014
a(I689
I7
F0.06791002
tp4015
a(I689
I8
F0.064932294
tp4016
a(I689
I9
F0.05484575
tp4017
a(I689
I10
F0.29127076
tp4018
a(I689
I11
F0.056359857
tp4019
aa(lp4020
(I690
I0
F0.11714447
tp4021
a(I690
I1
F0.029386934
tp4022
a(I690
I2
F0.020924887
tp4023
a(I690
I3
F0.10586237
tp4024
a(I690
I4
F0.08525698
tp4025
a(I690
I5
F0.1026852
tp4026
a(I690
I6
F0.013225528
tp4027
a(I690
I7
F0.045107476
tp4028
a(I690
I8
F0.06731458
tp4029
a(I690
I9
F0.039026953
tp4030
a(I690
I10
F0.11155449
tp4031
a(I690
I11
F0.0
tp4032
aa(lp4033
(I691
I0
F0.33137944
tp4034
a(I691
I1
F0.22349538
tp4035
a(I691
I2
F0.046294503
tp4036
a(I691
I3
F0.29994428
tp4037
a(I691
I4
F0.28065708
tp4038
a(I691
I5
F0.22737202
tp4039
a(I691
I6
F0.033188246
tp4040
a(I691
I7
F0.055419244
tp4041
a(I691
I8
F0.063914716
tp4042
a(I691
I9
F0.04707409
tp4043
a(I691
I10
F0.27747393
tp4044
a(I691
I11
F0.04900845
tp4045
aa(lp4046
(I692
I0
F0.12175535
tp4047
a(I692
I1
F0.0
tp4048
a(I692
I2
F0.23037067
tp4049
a(I692
I3
F0.1960477
tp4050
a(I692
I4
F0.0
tp4051
aa(lp4052
(I693
I0
F0.16891247
tp4053
a(I693
I1
F0.0
tp4054
a(I693
I2
F0.2327996
tp4055
a(I693
I3
F0.21953547
tp4056
a(I693
I4
F0.0
tp4057
aa(lp4058
(I694
I0
F0.2178475
tp4059
a(I694
I1
F0.0
tp4060
a(I694
I2
F0.3144687
tp4061
a(I694
I3
F0.24732335
tp4062
a(I694
I4
F0.0
tp4063
aa(lp4064
(I695
I0
F0.40113512
tp4065
a(I695
I1
F0.30525008
tp4066
aa(lp4067
(I696
I0
F0.23557721
tp4068
a(I696
I1
F0.17069717
tp4069
aa(lp4070
(I697
I0
F0.3194644
tp4071
a(I697
I1
F0.38247254
tp4072
aa(lp4073
(I698
I0
F0.17631514
tp4074
a(I698
I1
F0.4944243
tp4075
a(I698
I2
F0.10666893
tp4076
aa(lp4077
(I699
I0
F0.112284854
tp4078
a(I699
I1
F0.34479094
tp4079
a(I699
I2
F0.11475967
tp4080
aa(lp4081
(I700
I0
F0.36253142
tp4082
a(I700
I1
F0.4489939
tp4083
a(I700
I2
F0.087254055
tp4084
aa(lp4085
(I701
I0
F0.30022988
tp4086
a(I701
I1
F0.1208347
tp4087
a(I701
I2
F0.011149387
tp4088
a(I701
I3
F0.109669246
tp4089
a(I701
I4
F0.1724557
tp4090
a(I701
I5
F0.10377603
tp4091
a(I701
I6
F0.0
tp4092
aa(lp4093
(I702
I0
F0.23937494
tp4094
a(I702
I1
F0.19940393
tp4095
a(I702
I2
F0.02237113
tp4096
a(I702
I3
F0.21521384
tp4097
a(I702
I4
F0.030648543
tp4098
a(I702
I5
F0.17750858
tp4099
a(I702
I6
F0.0
tp4100
aa(lp4101
(I703
I0
F0.38506737
tp4102
a(I703
I1
F0.143543
tp4103
a(I703
I2
F0.23025274
tp4104
a(I703
I3
F0.2990035
tp4105
aa(lp4106
(I704
I0
F0.24504407
tp4107
a(I704
I1
F0.045658495
tp4108
a(I704
I2
F0.15999661
tp4109
a(I704
I3
F0.22236052
tp4110
aa(lp4111
(I705
I0
F0.2658135
tp4112
a(I705
I1
F0.30651328
tp4113
a(I705
I2
F0.32467717
tp4114
a(I705
I3
F0.0
tp4115
aa(lp4116
(I706
I0
F0.2232667
tp4117
a(I706
I1
F0.29653507
tp4118
a(I706
I2
F0.37099293
tp4119
a(I706
I3
F0.0
tp4120
aa(lp4121
(I707
I0
F0.13457663
tp4122
a(I707
I1
F0.14587301
tp4123
a(I707
I2
F0.13862267
tp4124
a(I707
I3
F0.0
tp4125
aa(lp4126
(I708
I0
F0.24847575
tp4127
a(I708
I1
F0.084016204
tp4128
a(I708
I2
F0.077993944
tp4129
a(I708
I3
F0.071030855
tp4130
a(I708
I4
F0.0
tp4131
a(I708
I5
F0.053738616
tp4132
a(I708
I6
F0.20624699
tp4133
a(I708
I7
F0.035487186
tp4134
a(I708
I8
F0.02783545
tp4135
a(I708
I9
F0.10173714
tp4136
a(I708
I10
F0.15124734
tp4137
aa(lp4138
(I709
I0
F0.110379495
tp4139
a(I709
I1
F0.11520291
tp4140
a(I709
I2
F0.24406
tp4141
a(I709
I3
F0.07717705
tp4142
a(I709
I4
F0.0
tp4143
a(I709
I5
F0.11528334
tp4144
a(I709
I6
F0.11264593
tp4145
a(I709
I7
F0.07491707
tp4146
a(I709
I8
F0.3309803
tp4147
a(I709
I9
F0.13707885
tp4148
a(I709
I10
F0.054071896
tp4149
aa(lp4150
(I710
I0
F0.33943254
tp4151
a(I710
I1
F0.4087949
tp4152
a(I710
I2
F0.209914
tp4153
a(I710
I3
F0.17795916
tp4154
aa(lp4155
(I711
I0
F0.27947912
tp4156
a(I711
I1
F0.25597322
tp4157
a(I711
I2
F0.22027951
tp4158
a(I711
I3
F0.099118836
tp4159
aa(lp4160
(I712
I0
F0.18507761
tp4161
a(I712
I1
F0.18742916
tp4162
a(I712
I2
F0.15730962
tp4163
a(I712
I3
F0.23146853
tp4164
aa(lp4165
(I713
I0
F0.40031657
tp4166
a(I713
I1
F0.3616359
tp4167
a(I713
I2
F0.4122697
tp4168
a(I713
I3
F0.21020487
tp4169
a(I713
I4
F0.10547875
tp4170
a(I713
I5
F0.16657557
tp4171
a(I713
I6
F0.60116357
tp4172
a(I713
I7
F0.38897273
tp4173
aa(lp4174
(I714
I0
F0.31477845
tp4175
a(I714
I1
F0.38420996
tp4176
a(I714
I2
F0.25055578
tp4177
a(I714
I3
F0.22780734
tp4178
a(I714
I4
F0.059451524
tp4179
a(I714
I5
F0.29430395
tp4180
a(I714
I6
F0.07771453
tp4181
a(I714
I7
F0.13160372
tp4182
aa(lp4183
(I715
I0
F0.16210759
tp4184
a(I715
I1
F0.18432337
tp4185
a(I715
I2
F0.24811167
tp4186
a(I715
I3
F0.38101795
tp4187
a(I715
I4
F0.30766815
tp4188
a(I715
I5
F0.16460837
tp4189
a(I715
I6
F0.42787156
tp4190
a(I715
I7
F0.35263175
tp4191
aa(lp4192
(I716
I0
F0.24613269
tp4193
a(I716
I1
F0.3100863
tp4194
a(I716
I2
F0.061228625
tp4195
aa(lp4196
(I717
I0
F0.33413553
tp4197
a(I717
I1
F0.3413208
tp4198
a(I717
I2
F0.124247566
tp4199
aa(lp4200
(I718
I0
F0.10227966
tp4201
a(I718
I1
F0.036718503
tp4202
a(I718
I2
F0.41885614
tp4203
a(I718
I3
F0.61989546
tp4204
a(I718
I4
F0.11524314
tp4205
a(I718
I5
F0.07713483
tp4206
a(I718
I6
F0.11562796
tp4207
a(I718
I7
F0.05444054
tp4208
a(I718
I8
F0.30231136
tp4209
aa(lp4210
(I719
I0
F0.3700317
tp4211
aa(lp4212
(I720
I0
F0.4359726
tp4213
aa(lp4214
(I721
I0
F0.30834845
tp4215
aa(lp4216
(I722
I0
F0.5706346
tp4217
aa(lp4218
(I723
I0
F0.3453454
tp4219
aa(lp4220
(I724
I0
F0.25971854
tp4221
aa(lp4222
(I725
I0
F0.38896477
tp4223
a(I725
I1
F0.3875653
tp4224
a(I725
I2
F0.32825673
tp4225
aa(lp4226
(I726
I0
F0.2612782
tp4227
a(I726
I1
F0.23023687
tp4228
a(I726
I2
F0.26722342
tp4229
aa(lp4230
(I727
I0
F0.40170392
tp4231
a(I727
I1
F0.2727797
tp4232
a(I727
I2
F0.33171892
tp4233
aa(lp4234
(I728
I0
F0.34888595
tp4235
a(I728
I1
F0.23902094
tp4236
a(I728
I2
F0.10379079
tp4237
a(I728
I3
F0.027483225
tp4238
aa(lp4239
(I729
I0
F0.22187118
tp4240
a(I729
I1
F0.039431855
tp4241
a(I729
I2
F0.078314595
tp4242
a(I729
I3
F0.24435829
tp4243
aa(lp4244
(I730
I0
F0.29409704
tp4245
a(I730
I1
F0.08302117
tp4246
a(I730
I2
F0.3401454
tp4247
a(I730
I3
F0.031294603
tp4248
aa(lp4249
(I731
I0
F0.46571732
tp4250
a(I731
I1
F0.15494166
tp4251
aa(lp4252
(I732
I0
F0.31461152
tp4253
a(I732
I1
F0.14953238
tp4254
aa(lp4255
(I733
I0
F0.4390986
tp4256
a(I733
I1
F0.21878034
tp4257
aa(lp4258
(I734
I0
F0.4464328
tp4259
a(I734
I1
F0.39468718
tp4260
a(I734
I2
F0.15806784
tp4261
a(I734
I3
F0.27160335
tp4262
a(I734
I4
F0.27445525
tp4263
aa(lp4264
(I735
I0
F0.37122306
tp4265
a(I735
I1
F0.28076226
tp4266
a(I735
I2
F0.15674517
tp4267
a(I735
I3
F0.2589643
tp4268
a(I735
I4
F0.14010046
tp4269
aa(lp4270
(I736
I0
F0.45151895
tp4271
a(I736
I1
F0.23171334
tp4272
a(I736
I2
F0.19729395
tp4273
a(I736
I3
F0.17140858
tp4274
a(I736
I4
F0.25453082
tp4275
aa(lp4276
(I737
I0
F0.42266083
tp4277
a(I737
I1
F0.12461885
tp4278
a(I737
I2
F0.14239262
tp4279
aa(lp4280
(I738
I0
F0.32524785
tp4281
a(I738
I1
F0.092427045
tp4282
a(I738
I2
F0.22131969
tp4283
aa(lp4284
(I739
I0
F0.36727583
tp4285
a(I739
I1
F0.14764704
tp4286
a(I739
I2
F0.2505873
tp4287
aa(lp4288
(I740
I0
F0.12935077
tp4289
aa(lp4290
(I741
I0
F0.08789901
tp4291
aa(lp4292
(I742
I0
F0.11891943
tp4293
aa(lp4294
(I743
I0
F0.2097966
tp4295
a(I743
I1
F0.10654141
tp4296
a(I743
I2
F0.36295405
tp4297
a(I743
I3
F0.40987265
tp4298
a(I743
I4
F0.13661234
tp4299
aa(lp4300
(I744
I0
F0.09721405
tp4301
a(I744
I1
F0.083391026
tp4302
a(I744
I2
F0.23994726
tp4303
a(I744
I3
F0.18939342
tp4304
a(I744
I4
F0.16583574
tp4305
aa(lp4306
(I745
I0
F0.31314096
tp4307
a(I745
I1
F0.10124172
tp4308
a(I745
I2
F0.4133307
tp4309
a(I745
I3
F0.27140707
tp4310
a(I745
I4
F0.0
tp4311
aa(lp4312
(I746
I0
F0.14342642
tp4313
a(I746
I1
F0.29368404
tp4314
a(I746
I2
F0.1310335
tp4315
a(I746
I3
F0.101931535
tp4316
a(I746
I4
F0.022308761
tp4317
a(I746
I5
F0.28628084
tp4318
aa(lp4319
(I747
I0
F0.27858844
tp4320
a(I747
I1
F0.2691149
tp4321
a(I747
I2
F0.12315995
tp4322
a(I747
I3
F0.11374134
tp4323
a(I747
I4
F0.021378981
tp4324
a(I747
I5
F0.3001547
tp4325
aa(lp4326
(I748
I0
F0.032583326
tp4327
a(I748
I1
F0.17129594
tp4328
a(I748
I2
F0.10674236
tp4329
a(I748
I3
F0.2210087
tp4330
a(I748
I4
F0.040073026
tp4331
a(I748
I5
F0.14153102
tp4332
aa(lp4333
(I749
I0
F0.15379788
tp4334
a(I749
I1
F0.27200478
tp4335
aa(lp4336
(I750
I0
F0.056967884
tp4337
a(I750
I1
F0.09550898
tp4338
aa(lp4339
(I751
I0
F0.29915518
tp4340
a(I751
I1
F0.23150559
tp4341
aa(lp4342
(I752
I0
F0.16130805
tp4343
a(I752
I1
F0.19899005
tp4344
a(I752
I2
F0.30907586
tp4345
a(I752
I3
F0.3126619
tp4346
a(I752
I4
F0.049612287
tp4347
a(I752
I5
F0.087568894
tp4348
a(I752
I6
F0.3786349
tp4349
a(I752
I7
F0.18549857
tp4350
a(I752
I8
F0.06309442
tp4351
a(I752
I9
F0.22066954
tp4352
a(I752
I10
F0.16292635
tp4353
a(I752
I11
F0.046456613
tp4354
a(I752
I12
F0.03789177
tp4355
a(I752
I13
F0.09673046
tp4356
aa(lp4357
(I753
I0
F0.37348676
tp4358
a(I753
I1
F0.3863479
tp4359
a(I753
I2
F0.31858507
tp4360
a(I753
I3
F0.27800924
tp4361
a(I753
I4
F0.1509716
tp4362
a(I753
I5
F0.05258291
tp4363
a(I753
I6
F0.16963483
tp4364
a(I753
I7
F0.17947981
tp4365
a(I753
I8
F0.056460705
tp4366
a(I753
I9
F0.17620389
tp4367
a(I753
I10
F0.11189857
tp4368
a(I753
I11
F0.0459913
tp4369
a(I753
I12
F0.09816071
tp4370
a(I753
I13
F0.11209698
tp4371
aa(lp4372
(I754
I0
F0.322033
tp4373
a(I754
I1
F0.37724695
tp4374
a(I754
I2
F0.30088845
tp4375
a(I754
I3
F0.19881843
tp4376
a(I754
I4
F0.13311166
tp4377
a(I754
I5
F0.020281538
tp4378
a(I754
I6
F0.18851744
tp4379
a(I754
I7
F0.15626223
tp4380
a(I754
I8
F0.2864493
tp4381
a(I754
I9
F0.19418518
tp4382
a(I754
I10
F0.14181513
tp4383
a(I754
I11
F0.056083824
tp4384
a(I754
I12
F0.1149488
tp4385
a(I754
I13
F0.09132621
tp4386
aa(lp4387
(I755
I0
F0.3855962
tp4388
a(I755
I1
F0.41343963
tp4389
a(I755
I2
F0.44037077
tp4390
a(I755
I3
F0.20481932
tp4391
a(I755
I4
F0.32343778
tp4392
aa(lp4393
(I756
I0
F0.08757507
tp4394
a(I756
I1
F0.19934595
tp4395
a(I756
I2
F0.22823289
tp4396
a(I756
I3
F0.0712333
tp4397
a(I756
I4
F0.0909403
tp4398
aa(lp4399
(I757
I0
F0.43525365
tp4400
a(I757
I1
F0.21585566
tp4401
a(I757
I2
F0.2665911
tp4402
a(I757
I3
F0.122036316
tp4403
a(I757
I4
F0.26912344
tp4404
aa(lp4405
(I758
I0
F0.5890722
tp4406
aa(lp4407
(I759
I0
F0.41648057
tp4408
aa(lp4409
(I760
I0
F0.3759404
tp4410
aa(lp4411
(I761
I0
F0.34148738
tp4412
a(I761
I1
F0.14612727
tp4413
a(I761
I2
F0.11476282
tp4414
a(I761
I3
F0.21371992
tp4415
a(I761
I4
F0.17910187
tp4416
a(I761
I5
F0.088792466
tp4417
aa(lp4418
(I762
I0
F0.28706408
tp4419
a(I762
I1
F0.085367434
tp4420
a(I762
I2
F0.10240177
tp4421
a(I762
I3
F0.121670574
tp4422
a(I762
I4
F0.13569954
tp4423
a(I762
I5
F0.10877256
tp4424
aa(lp4425
(I763
I0
F0.15196685
tp4426
a(I763
I1
F0.20121583
tp4427
a(I763
I2
F0.14424658
tp4428
a(I763
I3
F0.26787472
tp4429
a(I763
I4
F0.1336972
tp4430
a(I763
I5
F0.06878757
tp4431
aa(lp4432
(I764
I0
F0.2006433
tp4433
a(I764
I1
F0.36269084
tp4434
a(I764
I2
F0.14616136
tp4435
a(I764
I3
F0.11387247
tp4436
a(I764
I4
F0.50050735
tp4437
a(I764
I5
F0.29296866
tp4438
aa(lp4439
(I765
I0
F0.41843426
tp4440
a(I765
I1
F0.2469119
tp4441
a(I765
I2
F0.22546424
tp4442
a(I765
I3
F0.40066788
tp4443
a(I765
I4
F0.11813801
tp4444
a(I765
I5
F0.10419617
tp4445
aa(lp4446
(I766
I0
F0.27374804
tp4447
a(I766
I1
F0.280423
tp4448
a(I766
I2
F0.2312935
tp4449
a(I766
I3
F0.30661505
tp4450
a(I766
I4
F0.120888375
tp4451
a(I766
I5
F0.13894428
tp4452
aa(lp4453
(I767
I0
F0.29585302
tp4454
a(I767
I1
F0.22070561
tp4455
a(I767
I2
F0.20050026
tp4456
a(I767
I3
F0.0
tp4457
aa(lp4458
(I768
I0
F0.1017406
tp4459
a(I768
I1
F0.06191145
tp4460
a(I768
I2
F0.08688388
tp4461
a(I768
I3
F0.0
tp4462
aa(lp4463
(I769
I0
F0.1819873
tp4464
a(I769
I1
F0.21651095
tp4465
a(I769
I2
F0.27698606
tp4466
a(I769
I3
F0.0
tp4467
aa(lp4468
(I770
I0
F0.13675669
tp4469
a(I770
I1
F0.03337012
tp4470
a(I770
I2
F0.2738823
tp4471
a(I770
I3
F0.27045944
tp4472
a(I770
I4
F0.12527171
tp4473
aa(lp4474
(I771
I0
F0.0
tp4475
a(I771
I1
F0.0
tp4476
a(I771
I2
F0.2794062
tp4477
a(I771
I3
F0.26945877
tp4478
a(I771
I4
F0.18977128
tp4479
aa(lp4480
(I772
I0
F0.14096935
tp4481
a(I772
I1
F0.0040544514
tp4482
a(I772
I2
F0.36962453
tp4483
a(I772
I3
F0.20284666
tp4484
a(I772
I4
F0.3842256
tp4485
aa(lp4486
(I773
I0
F0.24357179
tp4487
a(I773
I1
F0.26386327
tp4488
aa(lp4489
(I774
I0
F0.19887382
tp4490
a(I774
I1
F0.18599775
tp4491
aa(lp4492
(I775
I0
F0.25574195
tp4493
a(I775
I1
F0.21126103
tp4494
aa(lp4495
(I776
I0
F0.25687453
tp4496
aa(lp4497
(I777
I0
F0.33687136
tp4498
aa(lp4499
(I778
I0
F0.2825
tp4500
aa(lp4501
(I779
I0
F0.037491325
tp4502
a(I779
I1
F0.08584218
tp4503
a(I779
I2
F0.0
tp4504
a(I779
I3
F0.0
tp4505
a(I779
I4
F0.35731816
tp4506
a(I779
I5
F0.37982967
tp4507
a(I779
I6
F0.0
tp4508
a(I779
I7
F0.14697334
tp4509
aa(lp4510
(I780
I0
F0.054879744
tp4511
a(I780
I1
F0.103122346
tp4512
a(I780
I2
F0.0
tp4513
a(I780
I3
F0.019747036
tp4514
a(I780
I4
F0.26349849
tp4515
a(I780
I5
F0.27884734
tp4516
a(I780
I6
F0.0
tp4517
a(I780
I7
F0.2942745
tp4518
aa(lp4519
(I781
I0
F0.038450364
tp4520
a(I781
I1
F0.0
tp4521
a(I781
I2
F0.0
tp4522
a(I781
I3
F0.040848672
tp4523
a(I781
I4
F0.5412331
tp4524
a(I781
I5
F0.33684194
tp4525
a(I781
I6
F0.0
tp4526
a(I781
I7
F0.27223185
tp4527
aa(lp4528
(I782
I0
F0.31830552
tp4529
aa(lp4530
(I783
I0
F0.2673803
tp4531
aa(lp4532
(I784
I0
F0.35312963
tp4533
aa(lp4534
(I785
I0
F0.19416405
tp4535
a(I785
I1
F0.46436968
tp4536
a(I785
I2
F0.108884394
tp4537
a(I785
I3
F0.3393141
tp4538
a(I785
I4
F0.17126417
tp4539
a(I785
I5
F0.29726762
tp4540
a(I785
I6
F0.0
tp4541
a(I785
I7
F0.20125468
tp4542
a(I785
I8
F0.044056207
tp4543
a(I785
I9
F0.093863204
tp4544
a(I785
I10
F0.017656965
tp4545
a(I785
I11
F0.16390309
tp4546
a(I785
I12
F0.042997878
tp4547
a(I785
I13
F0.08945479
tp4548
a(I785
I14
F0.21767852
tp4549
aa(lp4550
(I786
I0
F0.083916724
tp4551
a(I786
I1
F0.32656053
tp4552
a(I786
I2
F0.14341648
tp4553
a(I786
I3
F0.085879505
tp4554
a(I786
I4
F0.17376544
tp4555
a(I786
I5
F0.036231294
tp4556
a(I786
I6
F0.0
tp4557
a(I786
I7
F0.050851684
tp4558
a(I786
I8
F0.04720308
tp4559
a(I786
I9
F0.082501724
tp4560
a(I786
I10
F0.0
tp4561
a(I786
I11
F0.08846349
tp4562
a(I786
I12
F0.028085183
tp4563
a(I786
I13
F0.09532489
tp4564
a(I786
I14
F0.21584238
tp4565
aa(lp4566
(I787
I0
F0.11652724
tp4567
a(I787
I1
F0.176204
tp4568
a(I787
I2
F0.12556393
tp4569
a(I787
I3
F0.116002604
tp4570
a(I787
I4
F0.12184478
tp4571
a(I787
I5
F0.16498409
tp4572
a(I787
I6
F0.0
tp4573
a(I787
I7
F0.21610707
tp4574
a(I787
I8
F0.052576687
tp4575
a(I787
I9
F0.274363
tp4576
a(I787
I10
F0.0
tp4577
a(I787
I11
F0.18256462
tp4578
a(I787
I12
F0.06545314
tp4579
a(I787
I13
F0.13646746
tp4580
a(I787
I14
F0.3778967
tp4581
aa(lp4582
(I788
I0
F0.29179722
tp4583
aa(lp4584
(I789
I0
F0.29624596
tp4585
aa(lp4586
(I790
I0
F0.29888308
tp4587
aa(lp4588
(I791
I0
F0.35292754
tp4589
a(I791
I1
F0.3316126
tp4590
aa(lp4591
(I792
I0
F0.3029974
tp4592
a(I792
I1
F0.23812619
tp4593
aa(lp4594
(I793
I0
F0.16878483
tp4595
a(I793
I1
F0.2595918
tp4596
aa(lp4597
(I794
I0
F0.36333656
tp4598
a(I794
I1
F0.12020086
tp4599
a(I794
I2
F0.0823653
tp4600
aa(lp4601
(I795
I0
F0.22446728
tp4602
a(I795
I1
F0.32160726
tp4603
a(I795
I2
F0.047825247
tp4604
aa(lp4605
(I796
I0
F0.22375275
tp4606
a(I796
I1
F0.22361603
tp4607
a(I796
I2
F0.040471908
tp4608
aa(lp4609
(I797
I0
F0.52060485
tp4610
a(I797
I1
F0.11662053
tp4611
a(I797
I2
F0.07896145
tp4612
a(I797
I3
F0.30603
tp4613
a(I797
I4
F0.035577927
tp4614
a(I797
I5
F0.04377675
tp4615
aa(lp4616
(I798
I0
F0.33128375
tp4617
a(I798
I1
F0.0
tp4618
a(I798
I2
F0.07145701
tp4619
a(I798
I3
F0.122500226
tp4620
a(I798
I4
F0.16869907
tp4621
a(I798
I5
F0.19390553
tp4622
aa(lp4623
(I799
I0
F0.28136182
tp4624
a(I799
I1
F0.0
tp4625
a(I799
I2
F0.0
tp4626
a(I799
I3
F0.13206246
tp4627
a(I799
I4
F0.35557583
tp4628
a(I799
I5
F0.18177977
tp4629
aa(lp4630
(I800
I0
F0.31600353
tp4631
a(I800
I1
F0.07786871
tp4632
aa(lp4633
(I801
I0
F0.35323426
tp4634
a(I801
I1
F0.19571374
tp4635
aa(lp4636
(I802
I0
F0.3397364
tp4637
a(I802
I1
F0.23940493
tp4638
aa(lp4639
(I803
I0
F0.035216834
tp4640
a(I803
I1
F0.35030258
tp4641
a(I803
I2
F0.11379121
tp4642
a(I803
I3
F0.49312773
tp4643
a(I803
I4
F0.0
tp4644
a(I803
I5
F0.29644355
tp4645
a(I803
I6
F0.08279809
tp4646
a(I803
I7
F0.3893405
tp4647
aa(lp4648
(I804
I0
F0.069423445
tp4649
a(I804
I1
F0.30524018
tp4650
a(I804
I2
F0.25205657
tp4651
a(I804
I3
F0.39505342
tp4652
a(I804
I4
F0.034131873
tp4653
a(I804
I5
F0.11524401
tp4654
a(I804
I6
F0.08153793
tp4655
a(I804
I7
F0.29464212
tp4656
aa(lp4657
(I805
I0
F0.058043234
tp4658
a(I805
I1
F0.15498842
tp4659
a(I805
I2
F0.2154413
tp4660
a(I805
I3
F0.29218262
tp4661
a(I805
I4
F0.0
tp4662
a(I805
I5
F0.06854109
tp4663
a(I805
I6
F0.3016285
tp4664
a(I805
I7
F0.12561662
tp4665
aa(lp4666
(I806
I0
F0.57413024
tp4667
a(I806
I1
F0.47368556
tp4668
a(I806
I2
F0.45157975
tp4669
a(I806
I3
F0.3038072
tp4670
a(I806
I4
F0.1377241
tp4671
a(I806
I5
F0.19301724
tp4672
a(I806
I6
F0.690425
tp4673
a(I806
I7
F0.36825418
tp4674
aa(lp4675
(I807
I0
F0.15811355
tp4676
a(I807
I1
F0.29967093
tp4677
a(I807
I2
F0.30186287
tp4678
a(I807
I3
F0.1062632
tp4679
a(I807
I4
F0.15057634
tp4680
a(I807
I5
F0.06178163
tp4681
a(I807
I6
F0.6059275
tp4682
a(I807
I7
F0.39103758
tp4683
aa(lp4684
(I808
I0
F0.13619554
tp4685
a(I808
I1
F0.16540737
tp4686
a(I808
I2
F0.16983412
tp4687
a(I808
I3
F0.12225314
tp4688
a(I808
I4
F0.060408324
tp4689
a(I808
I5
F0.0959434
tp4690
a(I808
I6
F0.31808168
tp4691
a(I808
I7
F0.31083068
tp4692
aa(lp4693
(I809
I0
F0.13678615
tp4694
a(I809
I1
F0.30899277
tp4695
a(I809
I2
F0.1260009
tp4696
a(I809
I3
F0.22925556
tp4697
aa(lp4698
(I810
I0
F0.12717
tp4699
a(I810
I1
F0.19419776
tp4700
a(I810
I2
F0.0782179
tp4701
a(I810
I3
F0.12432069
tp4702
aa(lp4703
(I811
I0
F0.164045
tp4704
a(I811
I1
F0.3078566
tp4705
a(I811
I2
F0.13870513
tp4706
a(I811
I3
F0.27089468
tp4707
aa(lp4708
(I812
I0
F0.28793
tp4709
a(I812
I1
F0.4668011
tp4710
aa(lp4711
(I813
I0
F0.17582794
tp4712
a(I813
I1
F0.24421144
tp4713
aa(lp4714
(I814
I0
F0.4605721
tp4715
a(I814
I1
F0.49362758
tp4716
aa(lp4717
(I815
I0
F0.2212776
tp4718
a(I815
I1
F0.26475525
tp4719
a(I815
I2
F0.10029806
tp4720
a(I815
I3
F0.12264416
tp4721
a(I815
I4
F0.36407697
tp4722
aa(lp4723
(I816
I0
F0.45062026
tp4724
a(I816
I1
F0.27865127
tp4725
a(I816
I2
F0.09637768
tp4726
a(I816
I3
F0.255154
tp4727
a(I816
I4
F0.26608792
tp4728
aa(lp4729
(I817
I0
F0.28074935
tp4730
a(I817
I1
F0.25396666
tp4731
a(I817
I2
F0.058018077
tp4732
a(I817
I3
F0.2403011
tp4733
a(I817
I4
F0.0902812
tp4734
aa(lp4735
(I818
I0
F0.16660579
tp4736
a(I818
I1
F0.104321554
tp4737
a(I818
I2
F0.22591414
tp4738
a(I818
I3
F0.14664648
tp4739
a(I818
I4
F0.18318895
tp4740
a(I818
I5
F0.104340404
tp4741
aa(lp4742
(I819
I0
F0.124198854
tp4743
a(I819
I1
F0.09403844
tp4744
a(I819
I2
F0.0708196
tp4745
a(I819
I3
F0.12339706
tp4746
a(I819
I4
F0.092160165
tp4747
a(I819
I5
F0.09445607
tp4748
aa(lp4749
(I820
I0
F0.38371983
tp4750
a(I820
I1
F0.14427795
tp4751
a(I820
I2
F0.23554245
tp4752
a(I820
I3
F0.3716153
tp4753
a(I820
I4
F0.0605544
tp4754
a(I820
I5
F0.1255976
tp4755
aa(lp4756
(I821
I0
F0.14010732
tp4757
a(I821
I1
F0.3872792
tp4758
a(I821
I2
F0.21928978
tp4759
aa(lp4760
(I822
I0
F0.22942747
tp4761
a(I822
I1
F0.30381233
tp4762
a(I822
I2
F0.072907045
tp4763
aa(lp4764
(I823
I0
F0.2344873
tp4765
a(I823
I1
F0.33550432
tp4766
a(I823
I2
F0.26877463
tp4767
a(I823
I3
F0.25767437
tp4768
a(I823
I4
F0.28597257
tp4769
aa(lp4770
(I824
I0
F0.076096006
tp4771
a(I824
I1
F0.26846397
tp4772
a(I824
I2
F0.13955207
tp4773
a(I824
I3
F0.058091886
tp4774
a(I824
I4
F0.106296845
tp4775
aa(lp4776
(I825
I0
F0.41137412
tp4777
a(I825
I1
F0.20791729
tp4778
a(I825
I2
F0.2925459
tp4779
a(I825
I3
F0.25572145
tp4780
a(I825
I4
F0.27341008
tp4781
aa(lp4782
(I826
I0
F0.38471887
tp4783
a(I826
I1
F0.19995075
tp4784
aa(lp4785
(I827
I0
F0.28585315
tp4786
a(I827
I1
F0.3424263
tp4787
aa(lp4788
(I828
I0
F0.36001465
tp4789
a(I828
I1
F0.34742337
tp4790
aa(lp4791
(I829
I0
F0.54645103
tp4792
a(I829
I1
F0.39666635
tp4793
a(I829
I2
F0.021677135
tp4794
aa(lp4795
(I830
I0
F0.28209144
tp4796
a(I830
I1
F0.29551697
tp4797
a(I830
I2
F0.08811076
tp4798
aa(lp4799
(I831
I0
F0.17414708
tp4800
a(I831
I1
F0.16085301
tp4801
a(I831
I2
F0.025627105
tp4802
aa(lp4803
(I832
I0
F0.035770915
tp4804
a(I832
I1
F0.28688887
tp4805
a(I832
I2
F0.040249657
tp4806
a(I832
I3
F0.07587218
tp4807
a(I832
I4
F0.28736615
tp4808
a(I832
I5
F0.4310262
tp4809
aa(lp4810
(I833
I0
F0.34569713
tp4811
a(I833
I1
F0.06167423
tp4812
a(I833
I2
F0.049718905
tp4813
a(I833
I3
F0.08949961
tp4814
a(I833
I4
F0.24515955
tp4815
a(I833
I5
F0.18735157
tp4816
aa(lp4817
(I834
I0
F0.05157204
tp4818
a(I834
I1
F0.14603716
tp4819
a(I834
I2
F0.031434067
tp4820
a(I834
I3
F0.06882533
tp4821
a(I834
I4
F0.134224
tp4822
a(I834
I5
F0.13945946
tp4823
aa(lp4824
(I835
I0
F0.43161738
tp4825
aa(lp4826
(I836
I0
F0.2936386
tp4827
aa(lp4828
(I837
I0
F0.3453619
tp4829
aa(lp4830
(I838
I0
F0.0587085
tp4831
a(I838
I1
F0.05646356
tp4832
aa(lp4833
(I839
I0
F0.058981847
tp4834
a(I839
I1
F0.09128803
tp4835
aa(lp4836
(I840
I0
F0.08535937
tp4837
a(I840
I1
F0.017323624
tp4838
aa(lp4839
(I841
I0
F0.33010367
tp4840
aa(lp4841
(I842
I0
F0.33631846
tp4842
aa(lp4843
(I843
I0
F0.32579482
tp4844
aa(lp4845
(I844
I0
F0.13036183
tp4846
a(I844
I1
F0.09788511
tp4847
a(I844
I2
F0.78405404
tp4848
a(I844
I3
F0.17940773
tp4849
a(I844
I4
F0.02386201
tp4850
aa(lp4851
(I845
I0
F0.28263777
tp4852
a(I845
I1
F0.1601101
tp4853
a(I845
I2
F0.33944008
tp4854
a(I845
I3
F0.30830556
tp4855
a(I845
I4
F0.051926162
tp4856
aa(lp4857
(I846
I0
F0.28117394
tp4858
a(I846
I1
F0.15027092
tp4859
a(I846
I2
F0.18464871
tp4860
a(I846
I3
F0.26041284
tp4861
a(I846
I4
F0.05802219
tp4862
aa(lp4863
(I847
I0
F0.09888242
tp4864
a(I847
I1
F0.07544704
tp4865
a(I847
I2
F0.26346192
tp4866
aa(lp4867
(I848
I0
F0.25966215
tp4868
a(I848
I1
F0.06522058
tp4869
a(I848
I2
F0.5221474
tp4870
aa(lp4871
(I849
I0
F0.27321592
tp4872
a(I849
I1
F0.050609853
tp4873
a(I849
I2
F0.25828463
tp4874
aa(lp4875
(I850
I0
F0.06784921
tp4876
a(I850
I1
F0.2558824
tp4877
a(I850
I2
F0.190318
tp4878
a(I850
I3
F0.45662916
tp4879
a(I850
I4
F0.3765792
tp4880
aa(lp4881
(I851
I0
F0.09233453
tp4882
a(I851
I1
F0.17759818
tp4883
a(I851
I2
F0.08988592
tp4884
a(I851
I3
F0.26870936
tp4885
a(I851
I4
F0.37263104
tp4886
aa(lp4887
(I852
I0
F0.081131205
tp4888
a(I852
I1
F0.22894779
tp4889
a(I852
I2
F0.13873303
tp4890
a(I852
I3
F0.14343417
tp4891
a(I852
I4
F0.19936346
tp4892
aa(lp4893
(I853
I0
F0.043658763
tp4894
a(I853
I1
F0.31717953
tp4895
a(I853
I2
F0.05042448
tp4896
a(I853
I3
F0.33405244
tp4897
aa(lp4898
(I854
I0
F0.023091868
tp4899
a(I854
I1
F0.24246345
tp4900
a(I854
I2
F0.0323817
tp4901
a(I854
I3
F0.2662442
tp4902
aa(lp4903
(I855
I0
F0.09798561
tp4904
a(I855
I1
F0.17491914
tp4905
a(I855
I2
F0.10033802
tp4906
a(I855
I3
F0.2580176
tp4907
aa(lp4908
(I856
I0
F0.3209647
tp4909
a(I856
I1
F0.08925291
tp4910
a(I856
I2
F0.5073777
tp4911
aa(lp4912
(I857
I0
F0.22492954
tp4913
a(I857
I1
F0.23602253
tp4914
a(I857
I2
F0.28855756
tp4915
aa(lp4916
(I858
I0
F0.23739234
tp4917
a(I858
I1
F0.27919668
tp4918
a(I858
I2
F0.19808456
tp4919
aa(lp4920
(I859
I0
F0.33929375
tp4921
a(I859
I1
F0.24818067
tp4922
a(I859
I2
F0.20389377
tp4923
a(I859
I3
F0.31731048
tp4924
a(I859
I4
F0.5138893
tp4925
aa(lp4926
(I860
I0
F0.25364912
tp4927
a(I860
I1
F0.15303174
tp4928
a(I860
I2
F0.0686328
tp4929
a(I860
I3
F0.11775047
tp4930
a(I860
I4
F0.28498724
tp4931
aa(lp4932
(I861
I0
F0.36089092
tp4933
a(I861
I1
F0.25130492
tp4934
a(I861
I2
F0.28691497
tp4935
a(I861
I3
F0.2856752
tp4936
a(I861
I4
F0.50151265
tp4937
aa(lp4938
(I862
I0
F0.20979445
tp4939
a(I862
I1
F0.38897544
tp4940
a(I862
I2
F0.0987682
tp4941
a(I862
I3
F0.21055119
tp4942
a(I862
I4
F0.39734042
tp4943
aa(lp4944
(I863
I0
F0.36352584
tp4945
a(I863
I1
F0.29616365
tp4946
a(I863
I2
F0.24704441
tp4947
a(I863
I3
F0.4152891
tp4948
a(I863
I4
F0.3133985
tp4949
aa(lp4950
(I864
I0
F0.35333306
tp4951
a(I864
I1
F0.28150055
tp4952
a(I864
I2
F0.28002024
tp4953
a(I864
I3
F0.3418799
tp4954
a(I864
I4
F0.3031301
tp4955
aa(lp4956
(I865
I0
F0.271268
tp4957
a(I865
I1
F0.12388597
tp4958
a(I865
I2
F0.23564072
tp4959
aa(lp4960
(I866
I0
F0.14946274
tp4961
a(I866
I1
F0.06332759
tp4962
a(I866
I2
F0.1139112
tp4963
aa(lp4964
(I867
I0
F0.41774046
tp4965
a(I867
I1
F0.09987579
tp4966
a(I867
I2
F0.22876236
tp4967
aa(lp4968
(I868
I0
F0.0
tp4969
a(I868
I1
F0.6042838
tp4970
a(I868
I2
F0.67081344
tp4971
a(I868
I3
F0.017538993
tp4972
a(I868
I4
F0.3112675
tp4973
a(I868
I5
F0.48801947
tp4974
a(I868
I6
F0.40077278
tp4975
a(I868
I7
F0.2989881
tp4976
aa(lp4977
(I869
I0
F0.03500878
tp4978
a(I869
I1
F0.15969713
tp4979
a(I869
I2
F0.19945775
tp4980
a(I869
I3
F0.08606254
tp4981
a(I869
I4
F0.3070832
tp4982
a(I869
I5
F0.44570902
tp4983
a(I869
I6
F0.40361062
tp4984
a(I869
I7
F0.34533498
tp4985
aa(lp4986
(I870
I0
F0.4587444
tp4987
aa(lp4988
(I871
I0
F0.23697911
tp4989
aa(lp4990
(I872
I0
F0.16289979
tp4991
aa(lp4992
(I873
I0
F0.4946916
tp4993
a(I873
I1
F0.04539391
tp4994
aa(lp4995
(I874
I0
F0.112289295
tp4996
a(I874
I1
F0.038893692
tp4997
aa(lp4998
(I875
I0
F0.0669639
tp4999
a(I875
I1
F0.03580521
tp5000
aa(lp5001
(I876
I0
F0.022538448
tp5002
a(I876
I1
F0.25669616
tp5003
aa(lp5004
(I877
I0
F0.076147266
tp5005
a(I877
I1
F0.21947093
tp5006
aa(lp5007
(I878
I0
F0.020441266
tp5008
a(I878
I1
F0.25454623
tp5009
aa(lp5010
(I879
I0
F0.3994405
tp5011
a(I879
I1
F0.32500502
tp5012
a(I879
I2
F0.24865782
tp5013
a(I879
I3
F0.31403115
tp5014
a(I879
I4
F0.22331889
tp5015
aa(lp5016
(I880
I0
F0.27670333
tp5017
a(I880
I1
F0.2604389
tp5018
a(I880
I2
F0.0584425
tp5019
a(I880
I3
F0.25026488
tp5020
a(I880
I4
F0.15723047
tp5021
aa(lp5022
(I881
I0
F0.17607266
tp5023
a(I881
I1
F0.26315415
tp5024
a(I881
I2
F0.14516917
tp5025
a(I881
I3
F0.23786049
tp5026
a(I881
I4
F0.13742207
tp5027
aa(lp5028
(I882
I0
F0.13485123
tp5029
a(I882
I1
F0.11266944
tp5030
a(I882
I2
F0.19494447
tp5031
a(I882
I3
F0.0
tp5032
a(I882
I4
F0.05012602
tp5033
a(I882
I5
F0.3629682
tp5034
a(I882
I6
F0.03757514
tp5035
aa(lp5036
(I883
I0
F0.08041688
tp5037
a(I883
I1
F0.2103115
tp5038
a(I883
I2
F0.115611546
tp5039
a(I883
I3
F0.01736874
tp5040
a(I883
I4
F0.15356322
tp5041
a(I883
I5
F0.07583319
tp5042
a(I883
I6
F0.0
tp5043
aa(lp5044
(I884
I0
F0.2574142
tp5045
a(I884
I1
F0.23571655
tp5046
a(I884
I2
F0.27993143
tp5047
a(I884
I3
F0.055022866
tp5048
a(I884
I4
F0.24193503
tp5049
a(I884
I5
F0.15584677
tp5050
a(I884
I6
F0.0
tp5051
aa(lp5052
(I885
I0
F0.1779367
tp5053
a(I885
I1
F0.0
tp5054
a(I885
I2
F0.23595423
tp5055
a(I885
I3
F0.23220849
tp5056
a(I885
I4
F0.0
tp5057
aa(lp5058
(I886
I0
F0.0
tp5059
a(I886
I1
F0.0
tp5060
a(I886
I2
F0.15785097
tp5061
a(I886
I3
F0.029943101
tp5062
a(I886
I4
F0.0
tp5063
aa(lp5064
(I887
I0
F0.0
tp5065
a(I887
I1
F0.0
tp5066
a(I887
I2
F0.0952999
tp5067
a(I887
I3
F0.07688872
tp5068
a(I887
I4
F0.0
tp5069
aa(lp5070
(I888
I0
F0.10642944
tp5071
a(I888
I1
F0.14821658
tp5072
a(I888
I2
F0.0
tp5073
a(I888
I3
F0.12389785
tp5074
aa(lp5075
(I889
I0
F0.24911067
tp5076
a(I889
I1
F0.27665615
tp5077
a(I889
I2
F0.0
tp5078
a(I889
I3
F0.24991907
tp5079
aa(lp5080
(I890
I0
F0.47539654
tp5081
a(I890
I1
F0.24613293
tp5082
a(I890
I2
F0.0
tp5083
a(I890
I3
F0.24923193
tp5084
aa(lp5085
(I891
I0
F0.21768837
tp5086
a(I891
I1
F0.34577116
tp5087
a(I891
I2
F0.09002383
tp5088
aa(lp5089
(I892
I0
F0.2040337
tp5090
a(I892
I1
F0.11559326
tp5091
a(I892
I2
F0.048486654
tp5092
aa(lp5093
(I893
I0
F0.17730206
tp5094
a(I893
I1
F0.43652177
tp5095
a(I893
I2
F0.022189185
tp5096
aa(lp5097
(I894
I0
F0.044108775
tp5098
a(I894
I1
F0.05772471
tp5099
aa(lp5100
(I895
I0
F0.0
tp5101
a(I895
I1
F0.06461257
tp5102
aa(lp5103
(I896
I0
F0.09789476
tp5104
a(I896
I1
F0.07284395
tp5105
aa(lp5106
(I897
I0
F0.28273135
tp5107
a(I897
I1
F0.32467717
tp5108
a(I897
I2
F0.0
tp5109
aa(lp5110
(I898
I0
F0.24639893
tp5111
a(I898
I1
F0.37099293
tp5112
a(I898
I2
F0.0
tp5113
aa(lp5114
(I899
I0
F0.13858867
tp5115
a(I899
I1
F0.13862267
tp5116
a(I899
I2
F0.0
tp5117
aa(lp5118
(I900
I0
F0.24650711
tp5119
a(I900
I1
F0.0
tp5120
a(I900
I2
F0.12575342
tp5121
a(I900
I3
F0.22779
tp5122
a(I900
I4
F0.15110837
tp5123
a(I900
I5
F0.30860338
tp5124
a(I900
I6
F0.119813144
tp5125
a(I900
I7
F0.052400876
tp5126
a(I900
I8
F0.24561894
tp5127
aa(lp5128
(I901
I0
F0.14077263
tp5129
a(I901
I1
F0.0
tp5130
a(I901
I2
F0.09825864
tp5131
a(I901
I3
F0.103815034
tp5132
a(I901
I4
F0.097944684
tp5133
a(I901
I5
F0.14931041
tp5134
a(I901
I6
F0.120172136
tp5135
a(I901
I7
F0.11913985
tp5136
a(I901
I8
F0.100927174
tp5137
aa(lp5138
(I902
I0
F0.27758124
tp5139
a(I902
I1
F0.0
tp5140
a(I902
I2
F0.2910697
tp5141
a(I902
I3
F0.22467214
tp5142
a(I902
I4
F0.25076813
tp5143
a(I902
I5
F0.33529308
tp5144
a(I902
I6
F0.19031759
tp5145
a(I902
I7
F0.1145509
tp5146
a(I902
I8
F0.19843026
tp5147
aa(lp5148
(I903
I0
F0.3953719
tp5149
a(I903
I1
F0.14307962
tp5150
aa(lp5151
(I904
I0
F0.2760701
tp5152
a(I904
I1
F0.2176747
tp5153
aa(lp5154
(I905
I0
F0.33625016
tp5155
a(I905
I1
F0.2322892
tp5156
aa(lp5157
(I906
I0
F0.11881276
tp5158
a(I906
I1
F0.3156726
tp5159
a(I906
I2
F0.068437204
tp5160
aa(lp5161
(I907
I0
F0.21883588
tp5162
a(I907
I1
F0.4888265
tp5163
a(I907
I2
F0.112670995
tp5164
aa(lp5165
(I908
I0
F0.25173584
tp5166
a(I908
I1
F0.40702957
tp5167
a(I908
I2
F0.0
tp5168
aa(lp5169
(I909
I0
F0.16701932
tp5170
a(I909
I1
F0.05697952
tp5171
aa(lp5172
(I910
I0
F0.052250516
tp5173
a(I910
I1
F0.057011962
tp5174
aa(lp5175
(I911
I0
F0.2710499
tp5176
a(I911
I1
F0.050049983
tp5177
aa(lp5178
(I912
I0
F0.40924507
tp5179
a(I912
I1
F0.29784903
tp5180
a(I912
I2
F0.25867826
tp5181
a(I912
I3
F0.25199643
tp5182
a(I912
I4
F0.25472715
tp5183
a(I912
I5
F0.41562212
tp5184
a(I912
I6
F0.17801912
tp5185
a(I912
I7
F0.5508147
tp5186
aa(lp5187
(I913
I0
F0.2330741
tp5188
a(I913
I1
F0.16282038
tp5189
a(I913
I2
F0.09442607
tp5190
a(I913
I3
F0.082911074
tp5191
a(I913
I4
F0.11989239
tp5192
a(I913
I5
F0.36287844
tp5193
a(I913
I6
F0.17390135
tp5194
a(I913
I7
F0.3066367
tp5195
aa(lp5196
(I914
I0
F0.37225008
tp5197
a(I914
I1
F0.33447307
tp5198
a(I914
I2
F0.23476386
tp5199
a(I914
I3
F0.15925218
tp5200
a(I914
I4
F0.21153289
tp5201
a(I914
I5
F0.15716732
tp5202
a(I914
I6
F0.21973757
tp5203
a(I914
I7
F0.15356156
tp5204
aa(lp5205
(I915
I0
F0.24645333
tp5206
a(I915
I1
F0.5462478
tp5207
a(I915
I2
F0.17409742
tp5208
a(I915
I3
F0.2782266
tp5209
aa(lp5210
(I916
I0
F0.17807125
tp5211
a(I916
I1
F0.41560784
tp5212
a(I916
I2
F0.097762406
tp5213
a(I916
I3
F0.13870774
tp5214
aa(lp5215
(I917
I0
F0.15468188
tp5216
a(I917
I1
F0.17612138
tp5217
a(I917
I2
F0.07339285
tp5218
a(I917
I3
F0.15796131
tp5219
aa(lp5220
(I918
I0
F0.13219532
tp5221
a(I918
I1
F0.08301585
tp5222
a(I918
I2
F0.39041004
tp5223
a(I918
I3
F0.46789166
tp5224
a(I918
I4
F0.17712043
tp5225
aa(lp5226
(I919
I0
F0.10786936
tp5227
a(I919
I1
F0.081344195
tp5228
a(I919
I2
F0.20397224
tp5229
a(I919
I3
F0.34530175
tp5230
a(I919
I4
F0.0
tp5231
aa(lp5232
(I920
I0
F0.112927735
tp5233
a(I920
I1
F0.1049986
tp5234
a(I920
I2
F0.24213077
tp5235
a(I920
I3
F0.24065419
tp5236
a(I920
I4
F0.0
tp5237
aa(lp5238
(I921
I0
F0.1639788
tp5239
a(I921
I1
F0.26654768
tp5240
a(I921
I2
F0.10844519
tp5241
a(I921
I3
F0.1486995
tp5242
a(I921
I4
F0.32498857
tp5243
a(I921
I5
F0.3589094
tp5244
a(I921
I6
F0.264287
tp5245
a(I921
I7
F0.36377692
tp5246
a(I921
I8
F0.15351167
tp5247
a(I921
I9
F0.05420286
tp5248
a(I921
I10
F0.22201401
tp5249
a(I921
I11
F0.0
tp5250
a(I921
I12
F0.149708
tp5251
a(I921
I13
F0.10737394
tp5252
aa(lp5253
(I922
I0
F0.13267498
tp5254
a(I922
I1
F0.16479611
tp5255
a(I922
I2
F0.11313007
tp5256
a(I922
I3
F0.14743139
tp5257
a(I922
I4
F0.32020298
tp5258
a(I922
I5
F0.21620646
tp5259
a(I922
I6
F0.096116565
tp5260
a(I922
I7
F0.29704258
tp5261
a(I922
I8
F0.085188955
tp5262
a(I922
I9
F0.050941356
tp5263
a(I922
I10
F0.038198367
tp5264
a(I922
I11
F0.0
tp5265
a(I922
I12
F0.08295851
tp5266
a(I922
I13
F0.089988634
tp5267
aa(lp5268
(I923
I0
F0.2794407
tp5269
a(I923
I1
F0.3320379
tp5270
a(I923
I2
F0.18538989
tp5271
a(I923
I3
F0.256612
tp5272
a(I923
I4
F0.36954743
tp5273
a(I923
I5
F0.27102748
tp5274
a(I923
I6
F0.18307847
tp5275
a(I923
I7
F0.14205188
tp5276
a(I923
I8
F0.0737369
tp5277
a(I923
I9
F0.08857218
tp5278
a(I923
I10
F0.25413838
tp5279
a(I923
I11
F0.0
tp5280
a(I923
I12
F0.15471774
tp5281
a(I923
I13
F0.2634129
tp5282
aa(lp5283
(I924
I0
F0.33768994
tp5284
a(I924
I1
F0.24527341
tp5285
a(I924
I2
F0.18024679
tp5286
a(I924
I3
F0.23819485
tp5287
aa(lp5288
(I925
I0
F0.26103863
tp5289
a(I925
I1
F0.270857
tp5290
a(I925
I2
F0.24345917
tp5291
a(I925
I3
F0.24742126
tp5292
aa(lp5293
(I926
I0
F0.4187921
tp5294
a(I926
I1
F0.24710546
tp5295
a(I926
I2
F0.20154613
tp5296
a(I926
I3
F0.13044336
tp5297
aa(lp5298
(I927
I0
F0.2078145
tp5299
a(I927
I1
F0.36898986
tp5300
a(I927
I2
F0.55246556
tp5301
a(I927
I3
F0.0
tp5302
a(I927
I4
F0.5182689
tp5303
a(I927
I5
F0.15729244
tp5304
a(I927
I6
F0.30964473
tp5305
a(I927
I7
F0.086620696
tp5306
a(I927
I8
F0.3256672
tp5307
a(I927
I9
F0.2947368
tp5308
a(I927
I10
F0.2536361
tp5309
a(I927
I11
F0.28980213
tp5310
a(I927
I12
F0.33373424
tp5311
a(I927
I13
F0.0390887
tp5312
aa(lp5313
(I928
I0
F0.49074477
tp5314
a(I928
I1
F0.3241329
tp5315
a(I928
I2
F0.26074028
tp5316
a(I928
I3
F0.0
tp5317
a(I928
I4
F0.2570048
tp5318
a(I928
I5
F0.22008698
tp5319
a(I928
I6
F0.19325699
tp5320
a(I928
I7
F0.24060142
tp5321
a(I928
I8
F0.04851006
tp5322
a(I928
I9
F0.22231366
tp5323
a(I928
I10
F0.040773313
tp5324
a(I928
I11
F0.03304586
tp5325
a(I928
I12
F0.23933786
tp5326
a(I928
I13
F0.0
tp5327
aa(lp5328
(I929
I0
F0.28754184
tp5329
a(I929
I1
F0.32856968
tp5330
a(I929
I2
F0.14958712
tp5331
a(I929
I3
F0.0
tp5332
a(I929
I4
F0.13364492
tp5333
a(I929
I5
F0.11815756
tp5334
a(I929
I6
F0.12170478
tp5335
a(I929
I7
F0.26839668
tp5336
a(I929
I8
F0.13665472
tp5337
a(I929
I9
F0.2512057
tp5338
a(I929
I10
F0.036966346
tp5339
a(I929
I11
F0.055136807
tp5340
a(I929
I12
F0.27881178
tp5341
a(I929
I13
F0.0
tp5342
aa(lp5343
(I930
I0
F0.12962092
tp5344
a(I930
I1
F0.5550297
tp5345
a(I930
I2
F0.3654827
tp5346
a(I930
I3
F0.4678441
tp5347
a(I930
I4
F0.39288744
tp5348
a(I930
I5
F0.08460302
tp5349
a(I930
I6
F0.099031255
tp5350
a(I930
I7
F0.3186946
tp5351
a(I930
I8
F0.32201928
tp5352
a(I930
I9
F0.1530537
tp5353
a(I930
I10
F0.0
tp5354
aa(lp5355
(I931
I0
F0.27717456
tp5356
a(I931
I1
F0.20179564
tp5357
a(I931
I2
F0.16639012
tp5358
a(I931
I3
F0.15520296
tp5359
a(I931
I4
F0.3195433
tp5360
a(I931
I5
F0.016565029
tp5361
a(I931
I6
F0.108447656
tp5362
a(I931
I7
F0.048626892
tp5363
a(I931
I8
F0.15692358
tp5364
a(I931
I9
F0.07924931
tp5365
a(I931
I10
F0.0
tp5366
aa(lp5367
(I932
I0
F0.52287084
tp5368
a(I932
I1
F0.63477767
tp5369
a(I932
I2
F0.507447
tp5370
a(I932
I3
F0.08358976
tp5371
aa(lp5372
(I933
I0
F0.40879366
tp5373
a(I933
I1
F0.365296
tp5374
a(I933
I2
F0.3064144
tp5375
a(I933
I3
F0.07726913
tp5376
aa(lp5377
(I934
I0
F0.35559878
tp5378
a(I934
I1
F0.3498094
tp5379
a(I934
I2
F0.21682517
tp5380
a(I934
I3
F0.07288664
tp5381
aa(lp5382
(I935
I0
F0.23114362
tp5383
a(I935
I1
F0.3792416
tp5384
a(I935
I2
F0.124240085
tp5385
a(I935
I3
F0.10640806
tp5386
a(I935
I4
F0.36669686
tp5387
a(I935
I5
F0.24409822
tp5388
aa(lp5389
(I936
I0
F0.10652753
tp5390
a(I936
I1
F0.29638612
tp5391
a(I936
I2
F0.10384478
tp5392
a(I936
I3
F0.058779277
tp5393
a(I936
I4
F0.36330786
tp5394
a(I936
I5
F0.2507794
tp5395
aa(lp5396
(I937
I0
F0.34553185
tp5397
a(I937
I1
F0.2728781
tp5398
a(I937
I2
F0.17679276
tp5399
a(I937
I3
F0.18794824
tp5400
a(I937
I4
F0.10135004
tp5401
a(I937
I5
F0.083849855
tp5402
aa(lp5403
(I938
I0
F0.0
tp5404
a(I938
I1
F0.077678695
tp5405
a(I938
I2
F0.3461997
tp5406
a(I938
I3
F0.25906757
tp5407
a(I938
I4
F0.23992682
tp5408
a(I938
I5
F0.036837064
tp5409
a(I938
I6
F0.36070338
tp5410
a(I938
I7
F0.25294986
tp5411
a(I938
I8
F0.30279762
tp5412
a(I938
I9
F0.229412
tp5413
a(I938
I10
F0.111410335
tp5414
a(I938
I11
F0.19478579
tp5415
aa(lp5416
(I939
I0
F0.0
tp5417
a(I939
I1
F0.07404481
tp5418
a(I939
I2
F0.025632212
tp5419
a(I939
I3
F0.099339835
tp5420
a(I939
I4
F0.104267724
tp5421
a(I939
I5
F0.0
tp5422
a(I939
I6
F0.24231973
tp5423
a(I939
I7
F0.31746623
tp5424
a(I939
I8
F0.2229492
tp5425
a(I939
I9
F0.23775516
tp5426
a(I939
I10
F0.1488237
tp5427
a(I939
I11
F0.09708292
tp5428
aa(lp5429
(I940
I0
F0.0
tp5430
a(I940
I1
F0.04068167
tp5431
a(I940
I2
F0.163712
tp5432
a(I940
I3
F0.23278615
tp5433
a(I940
I4
F0.2225249
tp5434
a(I940
I5
F0.041105065
tp5435
a(I940
I6
F0.23611367
tp5436
a(I940
I7
F0.3591673
tp5437
a(I940
I8
F0.25771692
tp5438
a(I940
I9
F0.37267223
tp5439
a(I940
I10
F0.12465784
tp5440
a(I940
I11
F0.16327265
tp5441
aa(lp5442
(I941
I0
F0.38930804
tp5443
a(I941
I1
F0.29100075
tp5444
a(I941
I2
F0.016236536
tp5445
aa(lp5446
(I942
I0
F0.28180546
tp5447
a(I942
I1
F0.1134019
tp5448
a(I942
I2
F0.031808577
tp5449
aa(lp5450
(I943
I0
F0.46871912
tp5451
a(I943
I1
F0.22651608
tp5452
a(I943
I2
F0.21371704
tp5453
aa(lp5454
(I944
I0
F0.14859155
tp5455
a(I944
I1
F0.29946065
tp5456
a(I944
I2
F0.3706761
tp5457
aa(lp5458
(I945
I0
F0.057924066
tp5459
a(I945
I1
F0.075828105
tp5460
a(I945
I2
F0.28135028
tp5461
aa(lp5462
(I946
I0
F0.43030357
tp5463
a(I946
I1
F0.27290386
tp5464
a(I946
I2
F0.3981657
tp5465
a(I946
I3
F0.44084916
tp5466
a(I946
I4
F0.28499708
tp5467
aa(lp5468
(I947
I0
F0.41940495
tp5469
a(I947
I1
F0.15431401
tp5470
a(I947
I2
F0.5027613
tp5471
a(I947
I3
F0.07901894
tp5472
a(I947
I4
F0.31009263
tp5473
aa(lp5474
(I948
I0
F0.32382265
tp5475
a(I948
I1
F0.12543207
tp5476
a(I948
I2
F0.34583557
tp5477
a(I948
I3
F0.10101241
tp5478
a(I948
I4
F0.29621795
tp5479
aa(lp5480
(I949
I0
F0.49100977
tp5481
a(I949
I1
F0.022097852
tp5482
a(I949
I2
F0.024519628
tp5483
a(I949
I3
F0.37302107
tp5484
a(I949
I4
F0.04707227
tp5485
a(I949
I5
F0.04896367
tp5486
a(I949
I6
F0.68892324
tp5487
a(I949
I7
F0.36776447
tp5488
a(I949
I8
F0.25294274
tp5489
a(I949
I9
F0.2920857
tp5490
a(I949
I10
F0.14699224
tp5491
a(I949
I11
F0.07579456
tp5492
a(I949
I12
F0.03202501
tp5493
aa(lp5494
(I950
I0
F0.28842768
tp5495
a(I950
I1
F0.04276501
tp5496
a(I950
I2
F0.032538734
tp5497
a(I950
I3
F0.18994302
tp5498
a(I950
I4
F0.18880898
tp5499
a(I950
I5
F0.04534733
tp5500
a(I950
I6
F0.20464376
tp5501
a(I950
I7
F0.16730297
tp5502
a(I950
I8
F0.23966786
tp5503
a(I950
I9
F0.27659544
tp5504
a(I950
I10
F0.12466054
tp5505
a(I950
I11
F0.056368437
tp5506
a(I950
I12
F0.039055906
tp5507
aa(lp5508
(I951
I0
F0.20838587
tp5509
a(I951
I1
F0.0540954
tp5510
a(I951
I2
F0.07710748
tp5511
a(I951
I3
F0.14154518
tp5512
a(I951
I4
F0.03163192
tp5513
a(I951
I5
F0.03818482
tp5514
a(I951
I6
F0.11133295
tp5515
a(I951
I7
F0.16237226
tp5516
a(I951
I8
F0.14681782
tp5517
a(I951
I9
F0.16596684
tp5518
a(I951
I10
F0.08715773
tp5519
a(I951
I11
F0.3405996
tp5520
a(I951
I12
F0.013700724
tp5521
aa(lp5522
(I952
I0
F0.6482323
tp5523
a(I952
I1
F0.13237926
tp5524
a(I952
I2
F0.08883568
tp5525
a(I952
I3
F0.38435638
tp5526
aa(lp5527
(I953
I0
F0.32919407
tp5528
a(I953
I1
F0.17320222
tp5529
a(I953
I2
F0.10154648
tp5530
a(I953
I3
F0.35621536
tp5531
aa(lp5532
(I954
I0
F0.27245203
tp5533
a(I954
I1
F0.09445332
tp5534
a(I954
I2
F0.07218781
tp5535
a(I954
I3
F0.19264984
tp5536
aa(lp5537
(I955
I0
F0.62077785
tp5538
aa(lp5539
(I956
I0
F0.33379596
tp5540
aa(lp5541
(I957
I0
F0.18350059
tp5542
aa(lp5543
(I958
I0
F0.3932082
tp5544
a(I958
I1
F0.35068735
tp5545
a(I958
I2
F0.36522084
tp5546
a(I958
I3
F0.07240085
tp5547
aa(lp5548
(I959
I0
F0.27532205
tp5549
a(I959
I1
F0.25734746
tp5550
a(I959
I2
F0.33864433
tp5551
a(I959
I3
F0.052608155
tp5552
aa(lp5553
(I960
I0
F0.39321518
tp5554
a(I960
I1
F0.37303087
tp5555
a(I960
I2
F0.14643466
tp5556
a(I960
I3
F0.077065244
tp5557
aa(lp5558
(I961
I0
F0.2353271
tp5559
aa(lp5560
(I962
I0
F0.3926434
tp5561
aa(lp5562
(I963
I0
F0.2728329
tp5563
aa(lp5564
(I964
I0
F0.5134767
tp5565
aa(lp5566
(I965
I0
F0.15940937
tp5567
a(I965
I1
F0.347023
tp5568
a(I965
I2
F0.10737681
tp5569
aa(lp5570
(I966
I0
F0.022500163
tp5571
a(I966
I1
F0.22582407
tp5572
a(I966
I2
F0.07397196
tp5573
aa(lp5574
(I967
I0
F0.18355985
tp5575
a(I967
I1
F0.23071957
tp5576
a(I967
I2
F0.15379342
tp5577
aa(lp5578
(I968
I0
F0.18671483
tp5579
aa(lp5580
(I969
I0
F0.26243156
tp5581
aa(lp5582
(I970
I0
F0.2745429
tp5583
aa(lp5584
(I971
I0
F0.1324946
tp5585
a(I971
I1
F0.27681127
tp5586
a(I971
I2
F0.33431685
tp5587
a(I971
I3
F0.39323118
tp5588
a(I971
I4
F0.07544566
tp5589
a(I971
I5
F0.29267082
tp5590
aa(lp5591
(I972
I0
F0.0865643
tp5592
a(I972
I1
F0.16341482
tp5593
a(I972
I2
F0.15504874
tp5594
a(I972
I3
F0.3741474
tp5595
a(I972
I4
F0.051064927
tp5596
a(I972
I5
F0.35374188
tp5597
aa(lp5598
(I973
I0
F0.2378686
tp5599
a(I973
I1
F0.21186802
tp5600
a(I973
I2
F0.44411862
tp5601
a(I973
I3
F0.10500632
tp5602
a(I973
I4
F0.2672027
tp5603
a(I973
I5
F0.23043652
tp5604
aa(lp5605
(I974
I0
F0.30946535
tp5606
a(I974
I1
F0.07501108
tp5607
a(I974
I2
F0.09480643
tp5608
a(I974
I3
F0.14456666
tp5609
aa(lp5610
(I975
I0
F0.11446718
tp5611
a(I975
I1
F0.12218778
tp5612
a(I975
I2
F0.26599723
tp5613
a(I975
I3
F0.29775316
tp5614
aa(lp5615
(I976
I0
F0.108500004
tp5616
a(I976
I1
F0.16058025
tp5617
a(I976
I2
F0.19676283
tp5618
a(I976
I3
F0.3019927
tp5619
aa(lp5620
(I977
I0
F0.30694443
tp5621
aa(lp5622
(I978
I0
F0.2579373
tp5623
aa(lp5624
(I979
I0
F0.2714076
tp5625
aa(lp5626
(I980
I0
F0.23935579
tp5627
a(I980
I1
F0.30420235
tp5628
a(I980
I2
F0.41082078
tp5629
a(I980
I3
F0.12455782
tp5630
a(I980
I4
F0.34877712
tp5631
aa(lp5632
(I981
I0
F0.12837783
tp5633
a(I981
I1
F0.26228678
tp5634
a(I981
I2
F0.27177408
tp5635
a(I981
I3
F0.106757134
tp5636
a(I981
I4
F0.28001222
tp5637
aa(lp5638
(I982
I0
F0.33381432
tp5639
a(I982
I1
F0.24788941
tp5640
a(I982
I2
F0.2693876
tp5641
a(I982
I3
F0.10444696
tp5642
a(I982
I4
F0.2154751
tp5643
aa(lp5644
(I983
I0
F0.13340253
tp5645
a(I983
I1
F0.057307173
tp5646
a(I983
I2
F0.32584852
tp5647
a(I983
I3
F0.18202782
tp5648
aa(lp5649
(I984
I0
F0.08848847
tp5650
a(I984
I1
F0.0
tp5651
a(I984
I2
F0.18269089
tp5652
a(I984
I3
F0.08582177
tp5653
aa(lp5654
(I985
I0
F0.18308838
tp5655
a(I985
I1
F0.023065934
tp5656
a(I985
I2
F0.3866943
tp5657
a(I985
I3
F0.15617453
tp5658
aa(lp5659
(I986
I0
F0.39409623
tp5660
aa(lp5661
(I987
I0
F0.26553845
tp5662
aa(lp5663
(I988
I0
F0.24989262
tp5664
aa(lp5665
(I989
I0
F0.47541723
tp5666
a(I989
I1
F0.12892385
tp5667
a(I989
I2
F0.3244464
tp5668
a(I989
I3
F0.38315564
tp5669
aa(lp5670
(I990
I0
F0.24210843
tp5671
a(I990
I1
F0.06750411
tp5672
a(I990
I2
F0.2792163
tp5673
a(I990
I3
F0.26948687
tp5674
aa(lp5675
(I991
I0
F0.41433266
tp5676
a(I991
I1
F0.08857176
tp5677
a(I991
I2
F0.21287757
tp5678
a(I991
I3
F0.22803737
tp5679
aa(lp5680
(I992
I0
F0.0766202
tp5681
a(I992
I1
F0.33796716
tp5682
a(I992
I2
F0.3351815
tp5683
a(I992
I3
F0.0
tp5684
a(I992
I4
F0.08545099
tp5685
aa(lp5686
(I993
I0
F0.05044577
tp5687
a(I993
I1
F0.30899948
tp5688
a(I993
I2
F0.3700777
tp5689
a(I993
I3
F0.0
tp5690
a(I993
I4
F0.049217932
tp5691
aa(lp5692
(I994
I0
F0.056953672
tp5693
a(I994
I1
F0.15512371
tp5694
a(I994
I2
F0.20718253
tp5695
a(I994
I3
F0.0
tp5696
a(I994
I4
F0.08706808
tp5697
aa(lp5698
(I995
I0
F0.5235702
tp5699
a(I995
I1
F0.28393495
tp5700
a(I995
I2
F0.2579533
tp5701
a(I995
I3
F0.09053754
tp5702
a(I995
I4
F0.2927641
tp5703
a(I995
I5
F0.5235702
tp5704
aa(lp5705
(I996
I0
F0.40061185
tp5706
a(I996
I1
F0.04471543
tp5707
a(I996
I2
F0.06616514
tp5708
a(I996
I3
F0.24504733
tp5709
a(I996
I4
F0.32695654
tp5710
a(I996
I5
F0.40061185
tp5711
aa(lp5712
(I997
I0
F0.49668887
tp5713
a(I997
I1
F0.1819548
tp5714
a(I997
I2
F0.059955277
tp5715
a(I997
I3
F0.2893492
tp5716
a(I997
I4
F0.26712102
tp5717
a(I997
I5
F0.49668887
tp5718
aa(lp5719
(I998
I0
F0.04040991
tp5720
a(I998
I1
F0.42163882
tp5721
aa(lp5722
(I999
I0
F0.031658016
tp5723
a(I999
I1
F0.33626556
tp5724
aa(lp5725
(I1000
I0
F0.05541913
tp5726
a(I1000
I1
F0.41792715
tp5727
aa(lp5728
(I1001
I0
F0.80545086
tp5729
a(I1001
I1
F0.53134173
tp5730
a(I1001
I2
F0.18706474
tp5731
a(I1001
I3
F0.3068633
tp5732
a(I1001
I4
F0.36513323
tp5733
aa(lp5734
(I1002
I0
F0.3277433
tp5735
a(I1002
I1
F0.2631946
tp5736
a(I1002
I2
F0.25996345
tp5737
a(I1002
I3
F0.080242716
tp5738
a(I1002
I4
F0.32758555
tp5739
aa(lp5740
(I1003
I0
F0.2478958
tp5741
a(I1003
I1
F0.20060863
tp5742
a(I1003
I2
F0.2534619
tp5743
a(I1003
I3
F0.055316646
tp5744
a(I1003
I4
F0.13881074
tp5745
aa(lp5746
(I1004
I0
F0.34826323
tp5747
a(I1004
I1
F0.37196186
tp5748
a(I1004
I2
F0.26367548
tp5749
a(I1004
I3
F0.2697733
tp5750
aa(lp5751
(I1005
I0
F0.11172346
tp5752
a(I1005
I1
F0.22945158
tp5753
a(I1005
I2
F0.0
tp5754
a(I1005
I3
F0.16663606
tp5755
aa(lp5756
(I1006
I0
F0.3209288
tp5757
a(I1006
I1
F0.23877735
tp5758
a(I1006
I2
F0.0683701
tp5759
a(I1006
I3
F0.32083237
tp5760
aa(lp5761
(I1007
I0
F0.5304836
tp5762
a(I1007
I1
F0.16733657
tp5763
aa(lp5764
(I1008
I0
F0.26623774
tp5765
a(I1008
I1
F0.22697842
tp5766
aa(lp5767
(I1009
I0
F0.25052357
tp5768
a(I1009
I1
F0.26744854
tp5769
aa(lp5770
(I1010
I0
F0.67084444
tp5771
a(I1010
I1
F0.3375559
tp5772
aa(lp5773
(I1011
I0
F0.20795135
tp5774
a(I1011
I1
F0.30400708
tp5775
aa(lp5776
(I1012
I0
F0.15331818
tp5777
a(I1012
I1
F0.20549698
tp5778
aa.