(lp0
Vpledge
p1
aVsanctioned
p2
aVlikely
p3
aVseen
p4
aVreligious
p5
aVpromote
p6
aVbased
p7
aVwould
p8
aVgod
p9
aVreligion
p10
aVstate
p11
aVtolerance
p12
aVbelief
p13
aVpower
p14
aVcondemnation
p15
aVmajority.
p16
aVreflect
p17
aVpart
p18
aVseparation
p19
aVamerica
p20
aVtradition
p21
aVimplies
p22
aVdemocracy
p23
aVamerican
p24
aVultimate
p25
aVremoving
p26
aVhistory
p27
a.